

Microchip MPLAB XC8 Assembler V2.05 build -831301201 
                                                                                               Mon Mar 09 15:00:25 2020

Microchip MPLAB XC8 C Compiler v2.05 (Free license) build 20181220022703 Og1 
     1                           	processor	18F4331
     2                           	fnconf	rparam,??,?,0
     3                           	opt	pw 120
     4                           	opt	flic
     5                           	psect	smallconst,global,reloc=2,class=SMALLCONST,delta=1,noexec
     6                           	psect	cinit,global,reloc=2,class=CODE,delta=1
     7                           	psect	bssCOMRAM,global,class=COMRAM,space=1,delta=1,noexec
     8                           	psect	bssBANK0,global,class=BANK0,space=1,delta=1,lowdata,noexec
     9                           	psect	cstackBANK0,global,class=BANK0,space=1,delta=1,noexec
    10                           	psect	cstackCOMRAM,global,class=COMRAM,space=1,delta=1,noexec
    11                           	psect	text0,global,reloc=2,class=CODE,delta=1
    12                           	psect	text1,global,reloc=2,class=CODE,delta=1
    13                           	psect	text2,global,reloc=2,class=CODE,delta=1
    14                           	psect	text3,global,reloc=2,class=CODE,delta=1
    15                           	psect	text4,global,reloc=2,class=CODE,delta=1
    16                           	psect	text5,global,reloc=2,class=CODE,delta=1
    17                           	psect	text6,global,reloc=2,class=CODE,delta=1
    18                           	psect	text7,global,reloc=2,class=CODE,delta=1
    19                           	psect	text8,global,reloc=2,class=CODE,delta=1
    20                           	psect	text9,global,reloc=2,class=CODE,delta=1
    21                           	psect	text10,global,reloc=2,class=CODE,delta=1
    22                           	psect	text11,global,reloc=2,class=CODE,delta=1
    23                           	psect	text12,global,reloc=2,class=CODE,delta=1
    24                           	psect	text13,global,reloc=2,class=CODE,delta=1
    25                           	psect	text14,global,reloc=2,class=CODE,delta=1
    26                           	psect	text15,global,reloc=2,class=CODE,delta=1
    27                           	psect	text16,global,reloc=2,class=CODE,delta=1
    28                           	psect	text17,global,reloc=2,class=CODE,delta=1
    29                           	psect	text18,global,reloc=2,class=CODE,delta=1
    30                           	psect	text19,global,reloc=2,class=CODE,delta=1
    31                           	psect	text20,global,reloc=2,class=CODE,delta=1
    32                           	psect	text21,global,reloc=2,class=CODE,delta=1
    33                           	psect	text22,global,reloc=2,class=CODE,delta=1
    34                           	psect	text23,global,reloc=2,class=CODE,delta=1
    35                           	psect	text24,global,reloc=2,class=CODE,delta=1
    36                           	psect	text25,global,reloc=2,class=CODE,delta=1
    37                           	psect	text26,global,reloc=2,class=CODE,delta=1,group=1
    38                           	psect	text27,global,reloc=2,class=CODE,delta=1,group=1
    39                           	psect	intcodelo,global,reloc=2,class=CODE,delta=1
    40                           	psect	intcode,global,reloc=2,class=CODE,delta=1
    41                           	psect	intcode_body,global,reloc=2,class=CODE,delta=1
    42                           	psect	text30,global,reloc=2,class=CODE,delta=1
    43                           	psect	intsave_regs,global,class=BIGRAM,space=1,delta=1,noexec
    44                           	psect	rparam,global,class=COMRAM,space=1,delta=1,noexec
    45                           	psect	temp,global,ovrld,common,class=COMRAM,space=1,delta=1
    46  0000                     
    47                           ; Version 2.05
    48                           ; Generated 20/12/2018 GMT
    49                           ; 
    50                           ; Copyright © 2018, Microchip Technology Inc. and its subsidiaries ("Microchip")
    51                           ; All rights reserved.
    52                           ; 
    53                           ; This software is developed by Microchip Technology Inc. and its subsidiaries ("Microch
      +                          ip").
    54                           ; 
    55                           ; Redistribution and use in source and binary forms, with or without modification, are
    56                           ; permitted provided that the following conditions are met:
    57                           ; 
    58                           ;     1. Redistributions of source code must retain the above copyright notice, this lis
      +                          t of
    59                           ;        conditions and the following disclaimer.
    60                           ; 
    61                           ;     2. Redistributions in binary form must reproduce the above copyright notice, this 
      +                          list
    62                           ;        of conditions and the following disclaimer in the documentation and/or other
    63                           ;        materials provided with the distribution.
    64                           ; 
    65                           ;     3. Microchip's name may not be used to endorse or promote products derived from th
      +                          is
    66                           ;        software without specific prior written permission.
    67                           ; 
    68                           ; THIS SOFTWARE IS PROVIDED BY MICROCHIP "AS IS" AND ANY EXPRESS OR IMPLIED WARRANTIES,
    69                           ; INCLUDING, BUT NOT LIMITED TO, THE IMPLIED WARRANTIES OF MERCHANTABILITY AND FITNESS F
      +                          OR
    70                           ; PURPOSE ARE DISCLAIMED.  IN NO EVENT SHALL MICROCHIP BE LIABLE FOR ANY DIRECT, INDIREC
      +                          T,
    71                           ; INCIDENTAL, SPECIAL, EXEMPLARY, OR CONSEQUENTIAL DAMAGES (INCLUDING BUT NOT LIMITED TO
    72                           ; PROCUREMENT OF SUBSTITUTE GOODS OR SERVICES; LOSS OF USE, DATA OR PROFITS; OR BUSINESS
    73                           ; INTERRUPTION) HOWSOEVER CAUSED AND ON ANY THEORY OF LIABILITY, WHETHER IN CONTRACT, ST
      +                          RICT
    74                           ; LIABILITY, OR TORT (INCLUDING NEGLIGENCE OR OTHERWISE) ARISING IN ANY WAY OUT OF THE U
      +                          SE OF
    75                           ; THIS SOFTWARE, EVEN IF ADVISED OF THE POSSIBILITY OF SUCH DAMAGE.
    76                           ; 
    77                           ; 
    78                           ; Code-generator required, PIC18F4331 Definitions
    79                           ; 
    80                           ; SFR Addresses
    81  0000                     _PORTDbits	set	3971
    82  0000                     _CAP1BUFL	set	3944
    83  0000                     _CAP1BUFH	set	3945
    84  0000                     _CAP1CON	set	3939
    85  0000                     _ANSEL1	set	4025
    86  0000                     _ANSEL0	set	4024
    87  0000                     _T5CON	set	4023
    88  0000                     _IPR1bits	set	3999
    89  0000                     _PIE1bits	set	3997
    90  0000                     _RCSTAbits	set	4011
    91  0000                     _TXSTAbits	set	4012
    92  0000                     _BAUDCONbits	set	4010
    93  0000                     _SPBRGH	set	4016
    94  0000                     _SPBRG	set	4015
    95  0000                     _TRISAbits	set	3986
    96  0000                     _TRISCbits	set	3988
    97  0000                     _LATDbits	set	3980
    98  0000                     _LATCbits	set	3979
    99  0000                     _LATAbits	set	3977
   100  0000                     _LATB	set	3978
   101  0000                     _PTPERH	set	3962
   102  0000                     _PTPERL	set	3963
   103  0000                     _PWMCON1	set	3950
   104  0000                     _PWMCON0	set	3951
   105  0000                     _PTCON1	set	3966
   106  0000                     _PTCON0	set	3967
   107  0000                     _RCREG	set	4014
   108  0000                     _PIR1bits	set	3998
   109  0000                     _INTCON2bits	set	4081
   110  0000                     _T0CON	set	4053
   111  0000                     _TRISDbits	set	3989
   112  0000                     _TRISBbits	set	3987
   113  0000                     _RCONbits	set	4048
   114  0000                     _INTCONbits	set	4082
   115  0000                     _OSCCONbits	set	4051
   116  0000                     _OSCCON	set	4051
   117  0000                     _PDC1H	set	3958
   118  0000                     _PDC1L	set	3959
   119  0000                     _PDC0H	set	3960
   120  0000                     _PDC0L	set	3961
   121                           
   122                           	psect	smallconst
   123  000300                     __psmallconst:
   124                           	opt callstack 0
   125  000300  00                 	db	0
   126  000301                     STR_12:
   127  000301  53                 	db	83	;'S'
   128  000302  54                 	db	84	;'T'
   129  000303  41                 	db	65	;'A'
   130  000304  52                 	db	82	;'R'
   131  000305  54                 	db	84	;'T'
   132  000306  49                 	db	73	;'I'
   133  000307  4E                 	db	78	;'N'
   134  000308  47                 	db	71	;'G'
   135  000309  20                 	db	32
   136  00030A  53                 	db	83	;'S'
   137  00030B  45                 	db	69	;'E'
   138  00030C  41                 	db	65	;'A'
   139  00030D  52                 	db	82	;'R'
   140  00030E  43                 	db	67	;'C'
   141  00030F  48                 	db	72	;'H'
   142  000310  00                 	db	0
   143  000311                     STR_11:
   144  000311  54                 	db	84	;'T'
   145  000312  4F                 	db	79	;'O'
   146  000313  20                 	db	32
   147  000314  53                 	db	83	;'S'
   148  000315  54                 	db	84	;'T'
   149  000316  41                 	db	65	;'A'
   150  000317  52                 	db	82	;'R'
   151  000318  54                 	db	84	;'T'
   152  000319  20                 	db	32
   153  00031A  53                 	db	83	;'S'
   154  00031B  45                 	db	69	;'E'
   155  00031C  41                 	db	65	;'A'
   156  00031D  52                 	db	82	;'R'
   157  00031E  43                 	db	67	;'C'
   158  00031F  48                 	db	72	;'H'
   159  000320  00                 	db	0
   160  000321                     STR_7:
   161  000321  52                 	db	82	;'R'
   162  000322  45                 	db	69	;'E'
   163  000323  53                 	db	83	;'S'
   164  000324  45                 	db	69	;'E'
   165  000325  54                 	db	84	;'T'
   166  000326  54                 	db	84	;'T'
   167  000327  49                 	db	73	;'I'
   168  000328  4E                 	db	78	;'N'
   169  000329  47                 	db	71	;'G'
   170  00032A  20                 	db	32
   171  00032B  52                 	db	82	;'R'
   172  00032C  4F                 	db	79	;'O'
   173  00032D  42                 	db	66	;'B'
   174  00032E  4F                 	db	79	;'O'
   175  00032F  54                 	db	84	;'T'
   176  000330  00                 	db	0
   177  000331                     STR_3:
   178  000331  43                 	db	67	;'C'
   179  000332  48                 	db	72	;'H'
   180  000333  45                 	db	69	;'E'
   181  000334  43                 	db	67	;'C'
   182  000335  4B                 	db	75	;'K'
   183  000336  53                 	db	83	;'S'
   184  000337  55                 	db	85	;'U'
   185  000338  4D                 	db	77	;'M'
   186  000339  20                 	db	32
   187  00033A  46                 	db	70	;'F'
   188  00033B  41                 	db	65	;'A'
   189  00033C  49                 	db	73	;'I'
   190  00033D  4C                 	db	76	;'L'
   191  00033E  45                 	db	69	;'E'
   192  00033F  44                 	db	68	;'D'
   193  000340  00                 	db	0
   194  000341                     STR_2:
   195  000341  43                 	db	67	;'C'
   196  000342  48                 	db	72	;'H'
   197  000343  45                 	db	69	;'E'
   198  000344  43                 	db	67	;'C'
   199  000345  4B                 	db	75	;'K'
   200  000346  53                 	db	83	;'S'
   201  000347  55                 	db	85	;'U'
   202  000348  4D                 	db	77	;'M'
   203  000349  20                 	db	32
   204  00034A  50                 	db	80	;'P'
   205  00034B  41                 	db	65	;'A'
   206  00034C  53                 	db	83	;'S'
   207  00034D  53                 	db	83	;'S'
   208  00034E  45                 	db	69	;'E'
   209  00034F  44                 	db	68	;'D'
   210  000350  00                 	db	0
   211  000351                     STR_5:
   212  000351  4D                 	db	77	;'M'
   213  000352  4F                 	db	79	;'O'
   214  000353  56                 	db	86	;'V'
   215  000354  49                 	db	73	;'I'
   216  000355  4E                 	db	78	;'N'
   217  000356  47                 	db	71	;'G'
   218  000357  20                 	db	32
   219  000358  54                 	db	84	;'T'
   220  000359  4F                 	db	79	;'O'
   221  00035A  20                 	db	32
   222  00035B  42                 	db	66	;'B'
   223  00035C  4F                 	db	79	;'O'
   224  00035D  4D                 	db	77	;'M'
   225  00035E  42                 	db	66	;'B'
   226  00035F  00                 	db	0
   227  000360                     STR_6:
   228  000360  52                 	db	82	;'R'
   229  000361  45                 	db	69	;'E'
   230  000362  54                 	db	84	;'T'
   231  000363  55                 	db	85	;'U'
   232  000364  52                 	db	82	;'R'
   233  000365  4E                 	db	78	;'N'
   234  000366  49                 	db	73	;'I'
   235  000367  4E                 	db	78	;'N'
   236  000368  47                 	db	71	;'G'
   237  000369  20                 	db	32
   238  00036A  48                 	db	72	;'H'
   239  00036B  4F                 	db	79	;'O'
   240  00036C  4D                 	db	77	;'M'
   241  00036D  45                 	db	69	;'E'
   242  00036E  00                 	db	0
   243  00036F                     STR_1:
   244  00036F  43                 	db	67	;'C'
   245  000370  72                 	db	114	;'r'
   246  000371  69                 	db	105	;'i'
   247  000372  74                 	db	116	;'t'
   248  000373  69                 	db	105	;'i'
   249  000374  63                 	db	99	;'c'
   250  000375  61                 	db	97	;'a'
   251  000376  6C                 	db	108	;'l'
   252  000377  20                 	db	32
   253  000378  45                 	db	69	;'E'
   254  000379  72                 	db	114	;'r'
   255  00037A  72                 	db	114	;'r'
   256  00037B  6F                 	db	111	;'o'
   257  00037C  72                 	db	114	;'r'
   258  00037D  00                 	db	0
   259  00037E                     STR_10:
   260  00037E  50                 	db	80	;'P'
   261  00037F  52                 	db	82	;'R'
   262  000380  45                 	db	69	;'E'
   263  000381  53                 	db	83	;'S'
   264  000382  53                 	db	83	;'S'
   265  000383  20                 	db	32
   266  000384  42                 	db	66	;'B'
   267  000385  55                 	db	85	;'U'
   268  000386  54                 	db	84	;'T'
   269  000387  54                 	db	84	;'T'
   270  000388  4F                 	db	79	;'O'
   271  000389  4E                 	db	78	;'N'
   272  00038A  00                 	db	0
   273  00038B                     STR_4:
   274  00038B  53                 	db	83	;'S'
   275  00038C  45                 	db	69	;'E'
   276  00038D  41                 	db	65	;'A'
   277  00038E  52                 	db	82	;'R'
   278  00038F  43                 	db	67	;'C'
   279  000390  48                 	db	72	;'H'
   280  000391  49                 	db	73	;'I'
   281  000392  4E                 	db	78	;'N'
   282  000393  47                 	db	71	;'G'
   283  000394  00                 	db	0
   284  000395                     STR_8:
   285  000395  25                 	db	37
   286  000396  75                 	db	117	;'u'
   287  000397  00                 	db	0
   288  0000                     
   289                           ; #config settings
   290  000398  00                 	db	0	; dummy byte at the end
   291  0000                     
   292                           	psect	cinit
   293  000FD6                     __pcinit:
   294                           	opt callstack 0
   295  000FD6                     start_initialization:
   296                           	opt callstack 0
   297  000FD6                     __initialization:
   298                           	opt callstack 0
   299                           
   300                           ; Clear objects allocated to BANK0 (48 bytes)
   301  000FD6  EE00  F060         	lfsr	0,__pbssBANK0
   302  000FDA  0E30               	movlw	48
   303  000FDC                     clear_0:
   304  000FDC  6AEE               	clrf	postinc0,c
   305  000FDE  06E8               	decf	wreg,f,c
   306  000FE0  E1FD               	bnz	clear_0
   307                           
   308                           ; Clear objects allocated to COMRAM (15 bytes)
   309  000FE2  EE00  F039         	lfsr	0,__pbssCOMRAM
   310  000FE6  0E0F               	movlw	15
   311  000FE8                     clear_1:
   312  000FE8  6AEE               	clrf	postinc0,c
   313  000FEA  06E8               	decf	wreg,f,c
   314  000FEC  E1FD               	bnz	clear_1
   315  000FEE                     end_of_initialization:
   316                           	opt callstack 0
   317  000FEE                     __end_of__initialization:
   318                           	opt callstack 0
   319  000FEE  9048               	bcf	int$flags,0,c	;clear compiler interrupt flag (level 1)
   320  000FF0  9248               	bcf	int$flags,1,c	;clear compiler interrupt flag (level 2)
   321  000FF2  0E00               	movlw	low (__Lmediumconst shr (0+16))
   322  000FF4  6EF8               	movwf	tblptru,c
   323  000FF6  0100               	movlb	0
   324  000FF8  EF07  F003         	goto	_main	;jump to C main() function
   325                           
   326                           	psect	bssCOMRAM
   327  000039                     __pbssCOMRAM:
   328                           	opt callstack 0
   329  000039                     	ds	2
   330  00003B                     	ds	2
   331  00003D                     debug@smoothed_data:
   332                           	opt callstack 0
   333  00003D                     	ds	2
   334  00003F                     classify_data@smoothed:
   335                           	opt callstack 0
   336  00003F                     	ds	2
   337  000041                     processRFID@position_in_buf:
   338                           	opt callstack 0
   339  000041                     	ds	1
   340  000042                     _robot_mode:
   341                           	opt callstack 0
   342  000042                     	ds	1
   343  000043                     _movement_time:
   344                           	opt callstack 0
   345  000043                     	ds	4
   346  000047                     _RFID_flag:
   347                           	opt callstack 0
   348  000047                     	ds	1
   349                           
   350                           	psect	bssBANK0
   351  000060                     __pbssBANK0:
   352                           	opt callstack 0
   353  000060                     	ds	2
   354  000062                     	ds	2
   355  000064                     	ds	32
   356  000084                     _RFIDbuf:
   357                           	opt callstack 0
   358  000084                     	ds	12
   359                           
   360                           	psect	cstackBANK0
   361  000090                     __pcstackBANK0:
   362                           	opt callstack 0
   363  000090                     main@searching_speed:
   364                           	opt callstack 0
   365                           
   366                           ; 2 bytes @ 0x0
   367  000090                     	ds	2
   368  000092                     main@moving_speed:
   369                           	opt callstack 0
   370                           
   371                           ; 2 bytes @ 0x2
   372  000092                     	ds	2
   373  000094                     main@motorL:
   374                           	opt callstack 0
   375                           
   376                           ; 9 bytes @ 0x4
   377  000094                     	ds	9
   378  00009D                     main@motorR:
   379                           	opt callstack 0
   380                           
   381                           ; 9 bytes @ 0xD
   382  00009D                     	ds	9
   383                           
   384                           	psect	cstackCOMRAM
   385  000001                     __pcstackCOMRAM:
   386                           	opt callstack 0
   387  000001                     processRFID@RFIDbuf:
   388                           	opt callstack 0
   389                           
   390                           ; 2 bytes @ 0x0
   391  000001                     	ds	2
   392  000003                     processRFID@latestChar:
   393                           	opt callstack 0
   394                           
   395                           ; 1 bytes @ 0x2
   396  000003                     	ds	1
   397  000004                     processRFID@i:
   398                           	opt callstack 0
   399                           
   400                           ; 1 bytes @ 0x3
   401  000004                     	ds	1
   402  000005                     ??_InterruptHandlerHigh:
   403                           
   404                           ; 1 bytes @ 0x4
   405  000005                     	ds	3
   406  000008                     ??_InterruptHandlerLow:
   407                           
   408                           ; 1 bytes @ 0x7
   409  000008                     	ds	3
   410  00000B                     ??_LCDout:
   411  00000B                     ?___wmul:
   412                           	opt callstack 0
   413  00000B                     initPWM@PWMperiod:
   414                           	opt callstack 0
   415  00000B                     classify_data@raw_data:
   416                           	opt callstack 0
   417  00000B                     ___wmul@multiplier:
   418                           	opt callstack 0
   419                           
   420                           ; 2 bytes @ 0xA
   421  00000B                     	ds	1
   422  00000C                     LCDout@number:
   423                           	opt callstack 0
   424                           
   425                           ; 1 bytes @ 0xB
   426  00000C                     	ds	1
   427  00000D                     ??_classify_data:
   428  00000D                     SendLCD@type:
   429                           	opt callstack 0
   430  00000D                     ___wmul@multiplicand:
   431                           	opt callstack 0
   432                           
   433                           ; 2 bytes @ 0xC
   434  00000D                     	ds	1
   435  00000E                     SendLCD@Byte:
   436                           	opt callstack 0
   437                           
   438                           ; 1 bytes @ 0xD
   439  00000E                     	ds	1
   440  00000F                     ??_init_LCD:
   441  00000F                     ??_ClearLCD:
   442  00000F                     SetLine@line:
   443                           	opt callstack 0
   444  00000F                     LCD_String@string:
   445                           	opt callstack 0
   446  00000F                     classify_data@filtered:
   447                           	opt callstack 0
   448  00000F                     ___wmul@product:
   449                           	opt callstack 0
   450                           
   451                           ; 2 bytes @ 0xE
   452  00000F                     	ds	1
   453  000010                     display_RFID@dataBuf:
   454                           	opt callstack 0
   455                           
   456                           ; 2 bytes @ 0xF
   457  000010                     	ds	1
   458  000011                     ??_waitForInput:
   459  000011                     ?___awdiv:
   460                           	opt callstack 0
   461  000011                     check_RFID@dataBuf:
   462                           	opt callstack 0
   463  000011                     ___awdiv@dividend:
   464                           	opt callstack 0
   465                           
   466                           ; 2 bytes @ 0x10
   467  000011                     	ds	1
   468  000012                     display_RFID@i:
   469                           	opt callstack 0
   470                           
   471                           ; 2 bytes @ 0x11
   472  000012                     	ds	1
   473  000013                     ??_check_RFID:
   474  000013                     ___awdiv@divisor:
   475                           	opt callstack 0
   476                           
   477                           ; 2 bytes @ 0x12
   478  000013                     	ds	1
   479  000014                     waitForInput@raw_data:
   480                           	opt callstack 0
   481                           
   482                           ; 2 bytes @ 0x13
   483  000014                     	ds	1
   484  000015                     ___awdiv@counter:
   485                           	opt callstack 0
   486  000015                     check_RFID@hexBuf:
   487                           	opt callstack 0
   488                           
   489                           ; 12 bytes @ 0x14
   490  000015                     	ds	1
   491  000016                     ___awdiv@sign:
   492                           	opt callstack 0
   493  000016                     waitForInput@i:
   494                           	opt callstack 0
   495                           
   496                           ; 2 bytes @ 0x15
   497  000016                     	ds	1
   498  000017                     ___awdiv@quotient:
   499                           	opt callstack 0
   500                           
   501                           ; 2 bytes @ 0x16
   502  000017                     	ds	1
   503  000018                     waitForInput@i_1361:
   504                           	opt callstack 0
   505                           
   506                           ; 2 bytes @ 0x17
   507  000018                     	ds	1
   508  000019                     setMotorPWM@m:
   509                           	opt callstack 0
   510                           
   511                           ; 2 bytes @ 0x18
   512  000019                     	ds	2
   513  00001B                     ??_setMotorPWM:
   514                           
   515                           ; 1 bytes @ 0x1A
   516  00001B                     	ds	5
   517  000020                     setMotorPWM@PWMduty:
   518                           	opt callstack 0
   519                           
   520                           ; 2 bytes @ 0x1F
   521  000020                     	ds	1
   522  000021                     check_RFID@byte1:
   523                           	opt callstack 0
   524                           
   525                           ; 1 bytes @ 0x20
   526  000021                     	ds	1
   527  000022                     check_RFID@byte2:
   528                           	opt callstack 0
   529  000022                     stop@mL:
   530                           	opt callstack 0
   531  000022                     turn@mL:
   532                           	opt callstack 0
   533  000022                     moveForward@mL:
   534                           	opt callstack 0
   535  000022                     moveBackward@mL:
   536                           	opt callstack 0
   537  000022                     init_motor_struct@mL:
   538                           	opt callstack 0
   539                           
   540                           ; 2 bytes @ 0x21
   541  000022                     	ds	1
   542  000023                     check_RFID@byte3:
   543                           	opt callstack 0
   544                           
   545                           ; 1 bytes @ 0x22
   546  000023                     	ds	1
   547  000024                     check_RFID@byte4:
   548                           	opt callstack 0
   549  000024                     stop@mR:
   550                           	opt callstack 0
   551  000024                     turn@mR:
   552                           	opt callstack 0
   553  000024                     moveForward@mR:
   554                           	opt callstack 0
   555  000024                     moveBackward@mR:
   556                           	opt callstack 0
   557  000024                     init_motor_struct@mR:
   558                           	opt callstack 0
   559                           
   560                           ; 2 bytes @ 0x23
   561  000024                     	ds	1
   562  000025                     check_RFID@byte5:
   563                           	opt callstack 0
   564                           
   565                           ; 1 bytes @ 0x24
   566  000025                     	ds	1
   567  000026                     check_RFID@checksum:
   568                           	opt callstack 0
   569  000026                     stop@initial_speed:
   570                           	opt callstack 0
   571  000026                     turn@max_power:
   572                           	opt callstack 0
   573  000026                     moveForward@max_power:
   574                           	opt callstack 0
   575  000026                     moveBackward@max_power:
   576                           	opt callstack 0
   577                           
   578                           ; 2 bytes @ 0x25
   579  000026                     	ds	1
   580  000027                     check_RFID@i:
   581                           	opt callstack 0
   582                           
   583                           ; 2 bytes @ 0x26
   584  000027                     	ds	1
   585  000028                     ??_stop:
   586  000028                     ??_turn:
   587  000028                     ??_moveForward:
   588  000028                     ??_moveBackward:
   589                           
   590                           ; 1 bytes @ 0x27
   591  000028                     	ds	1
   592  000029                     stop@i:
   593                           	opt callstack 0
   594  000029                     turn@i:
   595                           	opt callstack 0
   596  000029                     moveForward@i:
   597                           	opt callstack 0
   598  000029                     moveBackward@i:
   599                           	opt callstack 0
   600                           
   601                           ; 2 bytes @ 0x28
   602  000029                     	ds	2
   603  00002B                     scanForBeacon@mL:
   604                           	opt callstack 0
   605  00002B                     moveToBeacon@mL:
   606                           	opt callstack 0
   607  00002B                     returnHome@mL:
   608                           	opt callstack 0
   609  00002B                     stopAndDisplay@mL:
   610                           	opt callstack 0
   611                           
   612                           ; 2 bytes @ 0x2A
   613  00002B                     	ds	2
   614  00002D                     scanForBeacon@mR:
   615                           	opt callstack 0
   616  00002D                     moveToBeacon@mR:
   617                           	opt callstack 0
   618  00002D                     returnHome@mR:
   619                           	opt callstack 0
   620  00002D                     stopAndDisplay@mR:
   621                           	opt callstack 0
   622                           
   623                           ; 2 bytes @ 0x2C
   624  00002D                     	ds	2
   625  00002F                     scanForBeacon@speed:
   626                           	opt callstack 0
   627  00002F                     moveToBeacon@speed:
   628                           	opt callstack 0
   629  00002F                     returnHome@speed:
   630                           	opt callstack 0
   631  00002F                     stopAndDisplay@speed:
   632                           	opt callstack 0
   633                           
   634                           ; 2 bytes @ 0x2E
   635  00002F                     	ds	2
   636  000031                     ??_scanForBeacon:
   637  000031                     moveToBeacon@time:
   638                           	opt callstack 0
   639  000031                     returnHome@time:
   640                           	opt callstack 0
   641  000031                     stopAndDisplay@RFID_buffer:
   642                           	opt callstack 0
   643                           
   644                           ; 2 bytes @ 0x30
   645  000031                     	ds	2
   646  000033                     ??_stopAndDisplay:
   647  000033                     scanForBeacon@raw_data:
   648                           	opt callstack 0
   649  000033                     moveToBeacon@exit_flag:
   650                           	opt callstack 0
   651                           
   652                           ; 2 bytes @ 0x32
   653  000033                     	ds	2
   654  000035                     scanForBeacon@beacon_location:
   655                           	opt callstack 0
   656  000035                     stopAndDisplay@i:
   657                           	opt callstack 0
   658                           
   659                           ; 2 bytes @ 0x34
   660  000035                     	ds	4
   661  000039                     
   662                           ; 1 bytes @ 0x38
   663 ;;
   664 ;;Main: autosize = 0, tempsize = 0, incstack = 0, save=0
   665 ;;
   666 ;; *************** function _main *****************
   667 ;; Defined at:
   668 ;;		line 115 in file "main.c"
   669 ;; Parameters:    Size  Location     Type
   670 ;;		None
   671 ;; Auto vars:     Size  Location     Type
   672 ;;  motorR          9   13[BANK0 ] struct DC_motor
   673 ;;  motorL          9    4[BANK0 ] struct DC_motor
   674 ;;  moving_speed    2    2[BANK0 ] int 
   675 ;;  searching_sp    2    0[BANK0 ] int 
   676 ;; Return value:  Size  Location     Type
   677 ;;                  1    wreg      void 
   678 ;; Registers used:
   679 ;;		wreg, fsr0l, fsr0h, fsr1l, fsr1h, fsr2l, fsr2h, status,2, status,0, tblptrl, tblptrh, tblptru, prodl, prodh, cstack
   680 ;; Tracked objects:
   681 ;;		On entry : 0/0
   682 ;;		On exit  : 0/0
   683 ;;		Unchanged: 0/0
   684 ;; Data sizes:     COMRAM   BANK0   BANK1   BANK2
   685 ;;      Params:         0       0       0       0
   686 ;;      Locals:         0      22       0       0
   687 ;;      Temps:          0       0       0       0
   688 ;;      Totals:         0      22       0       0
   689 ;;Total ram usage:       22 bytes
   690 ;; Hardware stack levels required when called:    9
   691 ;; This function calls:
   692 ;;		_LCD_String
   693 ;;		_init_motor_struct
   694 ;;		_moveToBeacon
   695 ;;		_returnHome
   696 ;;		_scanForBeacon
   697 ;;		_setup
   698 ;;		_stopAndDisplay
   699 ;;		_waitForInput
   700 ;; This function is called by:
   701 ;;		Startup code after reset
   702 ;; This function uses a non-reentrant model
   703 ;;
   704                           
   705                           	psect	text0
   706  00060E                     __ptext0:
   707                           	opt callstack 0
   708  00060E                     _main:
   709                           	opt callstack 22
   710                           
   711                           ;main.c: 118:   setup();
   712                           
   713                           ;incstack = 0
   714  00060E  EC87  F007         	call	_setup	;wreg free
   715                           
   716                           ;main.c: 121:   struct DC_motor motorL, motorR;;main.c: 122:   init_motor_struct(&motorL
      +                          , &motorR);
   717  000612  0E94               	movlw	low main@motorL
   718  000614  6E22               	movwf	init_motor_struct@mL,c
   719  000616  0E00               	movlw	high main@motorL
   720  000618  6E23               	movwf	init_motor_struct@mL+1,c
   721  00061A  0E9D               	movlw	low main@motorR
   722  00061C  6E24               	movwf	init_motor_struct@mR,c
   723  00061E  0E00               	movlw	high main@motorR
   724  000620  6E25               	movwf	init_motor_struct@mR+1,c
   725  000622  EC80  F003         	call	_init_motor_struct	;wreg free
   726                           
   727                           ;main.c: 125:   int searching_speed = 65;
   728  000626  0E00               	movlw	0
   729  000628  0100               	movlb	0	; () banked
   730  00062A  6F91               	movwf	(main@searching_speed+1)& (0+255),b
   731  00062C  0E41               	movlw	65
   732  00062E  6F90               	movwf	main@searching_speed& (0+255),b
   733                           
   734                           ; BSR set to: 0
   735                           ;main.c: 126:   int moving_speed = 95;
   736  000630  0E00               	movlw	0
   737  000632  6F93               	movwf	(main@moving_speed+1)& (0+255),b
   738  000634  0E5F               	movlw	95
   739  000636  6F92               	movwf	main@moving_speed& (0+255),b
   740                           
   741                           ; BSR set to: 0
   742                           ;main.c: 128:   waitForInput();
   743  000638  EC59  F004         	call	_waitForInput	;wreg free
   744  00063C                     l2625:
   745                           
   746                           ;main.c: 132:   {;main.c: 134:       if(robot_mode == 0)
   747  00063C  5042               	movf	_robot_mode,w,c	;volatile
   748  00063E  A4D8               	btfss	status,2,c
   749  000640  D00F               	goto	l2629
   750                           
   751                           ;main.c: 135:       {;main.c: 136:           robot_mode = scanForBeacon(&motorL, &motorR
      +                          , searching_speed);
   752  000642  0E94               	movlw	low main@motorL
   753  000644  6E2B               	movwf	scanForBeacon@mL,c
   754  000646  0E00               	movlw	high main@motorL
   755  000648  6E2C               	movwf	scanForBeacon@mL+1,c
   756  00064A  0E9D               	movlw	low main@motorR
   757  00064C  6E2D               	movwf	scanForBeacon@mR,c
   758  00064E  0E00               	movlw	high main@motorR
   759  000650  6E2E               	movwf	scanForBeacon@mR+1,c
   760  000652  C090  F02F         	movff	main@searching_speed,scanForBeacon@speed
   761  000656  C091  F030         	movff	main@searching_speed+1,scanForBeacon@speed+1
   762  00065A  ECD0  F006         	call	_scanForBeacon	;wreg free
   763  00065E  D047               	goto	L3
   764  000660                     l2629:
   765  000660  0442               	decf	_robot_mode,w,c	;volatile
   766  000662  A4D8               	btfss	status,2,c
   767  000664  D017               	goto	l2633
   768                           
   769                           ;main.c: 142:       {;main.c: 143:           robot_mode = moveToBeacon(&motorL, &motorR,
      +                           moving_speed,
   770  000666  0E94               	movlw	low main@motorL
   771  000668  6E2B               	movwf	moveToBeacon@mL,c
   772  00066A  0E00               	movlw	high main@motorL
   773  00066C  6E2C               	movwf	moveToBeacon@mL+1,c
   774  00066E  0E9D               	movlw	low main@motorR
   775  000670  6E2D               	movwf	moveToBeacon@mR,c
   776  000672  0E00               	movlw	high main@motorR
   777  000674  6E2E               	movwf	moveToBeacon@mR+1,c
   778  000676  C092  F02F         	movff	main@moving_speed,moveToBeacon@speed
   779  00067A  C093  F030         	movff	main@moving_speed+1,moveToBeacon@speed+1
   780  00067E  0E43               	movlw	low _movement_time
   781  000680  6E31               	movwf	moveToBeacon@time,c
   782  000682  0E00               	movlw	high _movement_time
   783  000684  6E32               	movwf	moveToBeacon@time+1,c
   784  000686  0E47               	movlw	low _RFID_flag
   785  000688  6E33               	movwf	moveToBeacon@exit_flag,c
   786  00068A  0E00               	movlw	high _RFID_flag
   787  00068C  6E34               	movwf	moveToBeacon@exit_flag+1,c
   788  00068E  EC43  F006         	call	_moveToBeacon	;wreg free
   789  000692  D02D               	goto	L3
   790  000694                     l2633:
   791  000694  0E02               	movlw	2
   792  000696  1842               	xorwf	_robot_mode,w,c	;volatile
   793  000698  A4D8               	btfss	status,2,c
   794  00069A  D013               	goto	l2637
   795                           
   796                           ;main.c: 149:       {;main.c: 150:           robot_mode = returnHome(&motorL, &motorR, m
      +                          oving_speed,
   797  00069C  0E94               	movlw	low main@motorL
   798  00069E  6E2B               	movwf	returnHome@mL,c
   799  0006A0  0E00               	movlw	high main@motorL
   800  0006A2  6E2C               	movwf	returnHome@mL+1,c
   801  0006A4  0E9D               	movlw	low main@motorR
   802  0006A6  6E2D               	movwf	returnHome@mR,c
   803  0006A8  0E00               	movlw	high main@motorR
   804  0006AA  6E2E               	movwf	returnHome@mR+1,c
   805  0006AC  C092  F02F         	movff	main@moving_speed,returnHome@speed
   806  0006B0  C093  F030         	movff	main@moving_speed+1,returnHome@speed+1
   807  0006B4  0E43               	movlw	low _movement_time
   808  0006B6  6E31               	movwf	returnHome@time,c
   809  0006B8  0E00               	movlw	high _movement_time
   810  0006BA  6E32               	movwf	returnHome@time+1,c
   811  0006BC  EC45  F007         	call	_returnHome	;wreg free
   812  0006C0  D016               	goto	L3
   813  0006C2                     l2637:
   814  0006C2  0E03               	movlw	3
   815  0006C4  1842               	xorwf	_robot_mode,w,c	;volatile
   816  0006C6  A4D8               	btfss	status,2,c
   817  0006C8  D014               	goto	l2641
   818                           
   819                           ;main.c: 156:       {;main.c: 157:           robot_mode = stopAndDisplay(&motorL, &motor
      +                          R, moving_speed,RFIDbuf);
   820  0006CA  0E94               	movlw	low main@motorL
   821  0006CC  6E2B               	movwf	stopAndDisplay@mL,c
   822  0006CE  0E00               	movlw	high main@motorL
   823  0006D0  6E2C               	movwf	stopAndDisplay@mL+1,c
   824  0006D2  0E9D               	movlw	low main@motorR
   825  0006D4  6E2D               	movwf	stopAndDisplay@mR,c
   826  0006D6  0E00               	movlw	high main@motorR
   827  0006D8  6E2E               	movwf	stopAndDisplay@mR+1,c
   828  0006DA  C092  F02F         	movff	main@moving_speed,stopAndDisplay@speed
   829  0006DE  C093  F030         	movff	main@moving_speed+1,stopAndDisplay@speed+1
   830  0006E2  0E84               	movlw	low _RFIDbuf
   831  0006E4  6E31               	movwf	stopAndDisplay@RFID_buffer,c
   832  0006E6  0E00               	movlw	high _RFIDbuf
   833  0006E8  6E32               	movwf	stopAndDisplay@RFID_buffer+1,c
   834  0006EA  ECB6  F004         	call	_stopAndDisplay	;wreg free
   835  0006EE                     L3:
   836  0006EE  6E42               	movwf	_robot_mode,c	;volatile
   837                           
   838                           ;main.c: 158:       }
   839  0006F0  D7A5               	goto	l2625
   840  0006F2                     l2641:
   841                           
   842                           ;main.c: 162:       {;main.c: 163:           LCD_String("Critical Error");
   843  0006F2  0E6F               	movlw	low STR_1
   844  0006F4  6E0F               	movwf	LCD_String@string,c
   845  0006F6  0E03               	movlw	high STR_1
   846  0006F8  6E10               	movwf	LCD_String@string+1,c
   847  0006FA  EC73  F006         	call	_LCD_String	;wreg free
   848  0006FE  D79E               	goto	l2625
   849  000700                     __end_of_main:
   850                           	opt callstack 0
   851                           
   852 ;; *************** function _waitForInput *****************
   853 ;; Defined at:
   854 ;;		line 143 in file "subroutines.c"
   855 ;; Parameters:    Size  Location     Type
   856 ;;		None
   857 ;; Auto vars:     Size  Location     Type
   858 ;;  raw_data        2   19[COMRAM] unsigned int 
   859 ;;  throwaway       1    0        unsigned char 
   860 ;;  i               2   23[COMRAM] int 
   861 ;;  i               2   21[COMRAM] int 
   862 ;; Return value:  Size  Location     Type
   863 ;;                  1    wreg      void 
   864 ;; Registers used:
   865 ;;		wreg, fsr0l, fsr0h, status,2, status,0, tblptrl, tblptrh, tblptru, cstack
   866 ;; Tracked objects:
   867 ;;		On entry : 0/0
   868 ;;		On exit  : 0/0
   869 ;;		Unchanged: 0/0
   870 ;; Data sizes:     COMRAM   BANK0   BANK1   BANK2
   871 ;;      Params:         0       0       0       0
   872 ;;      Locals:         7       0       0       0
   873 ;;      Temps:          2       0       0       0
   874 ;;      Totals:         9       0       0       0
   875 ;;Total ram usage:        9 bytes
   876 ;; Hardware stack levels used:    1
   877 ;; Hardware stack levels required when called:    7
   878 ;; This function calls:
   879 ;;		_ClearLCD
   880 ;;		_LCD_String
   881 ;;		_SetLine
   882 ;;		_classify_data
   883 ;; This function is called by:
   884 ;;		_main
   885 ;; This function uses a non-reentrant model
   886 ;;
   887                           
   888                           	psect	text1
   889  0008B2                     __ptext1:
   890                           	opt callstack 0
   891  0008B2                     _waitForInput:
   892                           	opt callstack 23
   893                           
   894                           ;subroutines.c: 146:     for(int i =0;i<500;i++)
   895                           
   896                           ;incstack = 0
   897  0008B2  0E00               	movlw	0
   898  0008B4  6E17               	movwf	waitForInput@i+1,c
   899  0008B6  0E00               	movlw	0
   900  0008B8  6E16               	movwf	waitForInput@i,c
   901  0008BA                     l2505:
   902                           
   903                           ;subroutines.c: 147:     {;subroutines.c: 148:         unsigned int raw_data = (unsigned
      +                           int)((CAP1BUFH << 8) | CAP1BUFL);
   904  0008BA  5068               	movf	3944,w,c	;volatile
   905  0008BC  CF69 F011          	movff	3945,??_waitForInput	;volatile
   906  0008C0  6A12               	clrf	(??_waitForInput+1)& (0+255),c
   907  0008C2  C011  F012         	movff	??_waitForInput,??_waitForInput+1
   908  0008C6  6A11               	clrf	??_waitForInput,c
   909  0008C8  1011               	iorwf	??_waitForInput,w,c
   910  0008CA  6E14               	movwf	waitForInput@raw_data,c
   911  0008CC  5012               	movf	??_waitForInput+1,w,c
   912  0008CE  6E15               	movwf	waitForInput@raw_data+1,c
   913  0008D0  C014  F00B         	movff	waitForInput@raw_data,classify_data@raw_data
   914  0008D4  C015  F00C         	movff	waitForInput@raw_data+1,classify_data@raw_data+1
   915  0008D8  EC23  F007         	call	_classify_data	;wreg free
   916                           
   917                           ;subroutines.c: 150:     }
   918  0008DC  4A16               	infsnz	waitForInput@i,f,c
   919  0008DE  2A17               	incf	waitForInput@i+1,f,c
   920  0008E0  BE17               	btfsc	waitForInput@i+1,7,c
   921  0008E2  D7EB               	goto	l2505
   922  0008E4  0EF4               	movlw	244
   923  0008E6  5C16               	subwf	waitForInput@i,w,c
   924  0008E8  0E01               	movlw	1
   925  0008EA  5817               	subwfb	waitForInput@i+1,w,c
   926  0008EC  A0D8               	btfss	status,0,c
   927  0008EE  D7E5               	goto	l2505
   928                           
   929                           ;subroutines.c: 153:     ClearLCD();
   930  0008F0  EC2B  F008         	call	_ClearLCD	;wreg free
   931                           
   932                           ;subroutines.c: 154:     SetLine(1);
   933  0008F4  0E01               	movlw	1
   934  0008F6  ECD4  F007         	call	_SetLine
   935                           
   936                           ;subroutines.c: 155:     LCD_String("PRESS BUTTON");
   937  0008FA  0E7E               	movlw	low STR_10
   938  0008FC  6E0F               	movwf	LCD_String@string,c
   939  0008FE  0E03               	movlw	high STR_10
   940  000900  6E10               	movwf	LCD_String@string+1,c
   941  000902  EC73  F006         	call	_LCD_String	;wreg free
   942                           
   943                           ;subroutines.c: 156:     SetLine(2);
   944  000906  0E02               	movlw	2
   945  000908  ECD4  F007         	call	_SetLine
   946                           
   947                           ;subroutines.c: 157:     LCD_String("TO START SEARCH");
   948  00090C  0E11               	movlw	low STR_11
   949  00090E  6E0F               	movwf	LCD_String@string,c
   950  000910  0E03               	movlw	high STR_11
   951  000912  6E10               	movwf	LCD_String@string+1,c
   952  000914  EC73  F006         	call	_LCD_String	;wreg free
   953  000918                     l343:
   954  000918  A483               	btfss	3971,2,c	;volatile
   955  00091A  D7FE               	goto	l343
   956                           
   957                           ;subroutines.c: 163:     ClearLCD();
   958  00091C  EC2B  F008         	call	_ClearLCD	;wreg free
   959                           
   960                           ;subroutines.c: 164:     SetLine(1);
   961  000920  0E01               	movlw	1
   962  000922  ECD4  F007         	call	_SetLine
   963                           
   964                           ;subroutines.c: 165:     LCD_String("STARTING SEARCH");
   965  000926  0E01               	movlw	low STR_12
   966  000928  6E0F               	movwf	LCD_String@string,c
   967  00092A  0E03               	movlw	high STR_12
   968  00092C  6E10               	movwf	LCD_String@string+1,c
   969  00092E  EC73  F006         	call	_LCD_String	;wreg free
   970                           
   971                           ;subroutines.c: 166:     for(int i=0; i<10;i++)
   972  000932  0E00               	movlw	0
   973  000934  6E19               	movwf	waitForInput@i_1361+1,c
   974  000936  0E00               	movlw	0
   975  000938  6E18               	movwf	waitForInput@i_1361,c
   976  00093A                     l2529:
   977                           
   978                           ;subroutines.c: 167:     {;subroutines.c: 168:         _delay((unsigned long)((100)*(800
      +                          0000/4000.0)));
   979  00093A  0E02               	movlw	2
   980  00093C  6E12               	movwf	(??_waitForInput+1)& (0+255),c
   981  00093E  0E04               	movlw	4
   982  000940  6E11               	movwf	??_waitForInput& (0+255),c
   983  000942  0EBA               	movlw	186
   984  000944                     u1867:
   985  000944  2EE8               	decfsz	wreg,f,c
   986  000946  D7FE               	bra	u1867
   987  000948  2E11               	decfsz	??_waitForInput& (0+255),f,c
   988  00094A  D7FC               	bra	u1867
   989  00094C  2E12               	decfsz	(??_waitForInput+1)& (0+255),f,c
   990  00094E  D7FA               	bra	u1867
   991  000950  D000               	nop2	
   992                           
   993                           ;subroutines.c: 169:     }
   994  000952  4A18               	infsnz	waitForInput@i_1361,f,c
   995  000954  2A19               	incf	waitForInput@i_1361+1,f,c
   996  000956  BE19               	btfsc	waitForInput@i_1361+1,7,c
   997  000958  D7F0               	goto	l2529
   998  00095A  5019               	movf	waitForInput@i_1361+1,w,c
   999  00095C  E104               	bnz	u1740
  1000  00095E  0E0A               	movlw	10
  1001  000960  5C18               	subwf	waitForInput@i_1361,w,c
  1002  000962  A0D8               	btfss	status,0,c
  1003  000964  D7EA               	goto	l2529
  1004  000966                     u1740:
  1005                           
  1006                           ;subroutines.c: 170:     ClearLCD();
  1007  000966  EC2B  F008         	call	_ClearLCD	;wreg free
  1008  00096A  0012               	return		;funcret
  1009  00096C                     __end_of_waitForInput:
  1010                           	opt callstack 0
  1011                           
  1012 ;; *************** function _stopAndDisplay *****************
  1013 ;; Defined at:
  1014 ;;		line 81 in file "subroutines.c"
  1015 ;; Parameters:    Size  Location     Type
  1016 ;;  mL              2   42[COMRAM] PTR struct DC_motor
  1017 ;;		 -> main@motorL(9), 
  1018 ;;  mR              2   44[COMRAM] PTR struct DC_motor
  1019 ;;		 -> main@motorR(9), 
  1020 ;;  speed           2   46[COMRAM] int 
  1021 ;;  RFID_buffer     2   48[COMRAM] PTR volatile unsigned ch
  1022 ;;		 -> RFIDbuf(12), 
  1023 ;; Auto vars:     Size  Location     Type
  1024 ;;  i               2   52[COMRAM] int 
  1025 ;; Return value:  Size  Location     Type
  1026 ;;                  1    wreg      unsigned char 
  1027 ;; Registers used:
  1028 ;;		wreg, fsr0l, fsr0h, fsr1l, fsr1h, fsr2l, fsr2h, status,2, status,0, tblptrl, tblptrh, tblptru, prodl, prodh, cstack
  1029 ;; Tracked objects:
  1030 ;;		On entry : 0/0
  1031 ;;		On exit  : 0/0
  1032 ;;		Unchanged: 0/0
  1033 ;; Data sizes:     COMRAM   BANK0   BANK1   BANK2
  1034 ;;      Params:         8       0       0       0
  1035 ;;      Locals:         2       0       0       0
  1036 ;;      Temps:          2       0       0       0
  1037 ;;      Totals:        12       0       0       0
  1038 ;;Total ram usage:       12 bytes
  1039 ;; Hardware stack levels used:    1
  1040 ;; Hardware stack levels required when called:    8
  1041 ;; This function calls:
  1042 ;;		_ClearLCD
  1043 ;;		_LCD_String
  1044 ;;		_check_RFID
  1045 ;;		_display_RFID
  1046 ;;		_stop
  1047 ;; This function is called by:
  1048 ;;		_main
  1049 ;; This function uses a non-reentrant model
  1050 ;;
  1051                           
  1052                           	psect	text2
  1053  00096C                     __ptext2:
  1054                           	opt callstack 0
  1055  00096C                     _stopAndDisplay:
  1056                           	opt callstack 22
  1057                           
  1058                           ;subroutines.c: 81: volatile char stopAndDisplay(struct DC_motor *mL,struct DC_motor *mR
      +                          , int speed,;subroutines.c: 82:                                 volatile char RFID_buffe
      +                          r[]);subroutines.c: 83: {;subroutines.c: 84:     stop(mL, mR,speed);
  1059                           
  1060                           ;incstack = 0
  1061  00096C  C02B  F022         	movff	stopAndDisplay@mL,stop@mL
  1062  000970  C02C  F023         	movff	stopAndDisplay@mL+1,stop@mL+1
  1063  000974  C02D  F024         	movff	stopAndDisplay@mR,stop@mR
  1064  000978  C02E  F025         	movff	stopAndDisplay@mR+1,stop@mR+1
  1065  00097C  C02F  F026         	movff	stopAndDisplay@speed,stop@initial_speed
  1066  000980  C030  F027         	movff	stopAndDisplay@speed+1,stop@initial_speed+1
  1067  000984  ECA2  F006         	call	_stop	;wreg free
  1068                           
  1069                           ;subroutines.c: 86:     display_RFID(RFID_buffer);
  1070  000988  C031  F010         	movff	stopAndDisplay@RFID_buffer,display_RFID@dataBuf
  1071  00098C  C032  F011         	movff	stopAndDisplay@RFID_buffer+1,display_RFID@dataBuf+1
  1072  000990  EC67  F007         	call	_display_RFID	;wreg free
  1073                           
  1074                           ;subroutines.c: 87:     check_RFID(RFID_buffer);
  1075  000994  C031  F011         	movff	stopAndDisplay@RFID_buffer,check_RFID@dataBuf
  1076  000998  C032  F012         	movff	stopAndDisplay@RFID_buffer+1,check_RFID@dataBuf+1
  1077  00099C  ECCD  F001         	call	_check_RFID	;wreg free
  1078                           
  1079                           ;subroutines.c: 89:     if(RFID_buffer[0] != 0)
  1080  0009A0  C031  FFD9         	movff	stopAndDisplay@RFID_buffer,fsr2l
  1081  0009A4  C032  FFDA         	movff	stopAndDisplay@RFID_buffer+1,fsr2h
  1082  0009A8  50DF               	movf	indf2,w,c
  1083  0009AA  A4D8               	btfss	status,2,c
  1084  0009AC  D026               	goto	l2609
  1085  0009AE  D028               	goto	l2611
  1086  0009B0                     l2593:
  1087                           
  1088                           ;subroutines.c: 94:             {;subroutines.c: 95:                 ClearLCD();
  1089  0009B0  EC2B  F008         	call	_ClearLCD	;wreg free
  1090                           
  1091                           ;subroutines.c: 96:                 LCD_String("RESETTING ROBOT");
  1092  0009B4  0E21               	movlw	low STR_7
  1093  0009B6  6E0F               	movwf	LCD_String@string,c
  1094  0009B8  0E03               	movlw	high STR_7
  1095  0009BA  6E10               	movwf	LCD_String@string+1,c
  1096  0009BC  EC73  F006         	call	_LCD_String	;wreg free
  1097                           
  1098                           ;subroutines.c: 97:                 for(int i=0; i<10;i++)
  1099  0009C0  0E00               	movlw	0
  1100  0009C2  6E36               	movwf	stopAndDisplay@i+1,c
  1101  0009C4  0E00               	movlw	0
  1102  0009C6  6E35               	movwf	stopAndDisplay@i,c
  1103  0009C8                     l2603:
  1104                           
  1105                           ;subroutines.c: 98:                 {;subroutines.c: 99:                     _delay((uns
      +                          igned long)((100)*(8000000/4000.0)));
  1106  0009C8  0E02               	movlw	2
  1107  0009CA  6E34               	movwf	(??_stopAndDisplay+1)& (0+255),c
  1108  0009CC  0E04               	movlw	4
  1109  0009CE  6E33               	movwf	??_stopAndDisplay& (0+255),c
  1110  0009D0  0EBA               	movlw	186
  1111  0009D2                     u1877:
  1112  0009D2  2EE8               	decfsz	wreg,f,c
  1113  0009D4  D7FE               	bra	u1877
  1114  0009D6  2E33               	decfsz	??_stopAndDisplay& (0+255),f,c
  1115  0009D8  D7FC               	bra	u1877
  1116  0009DA  2E34               	decfsz	(??_stopAndDisplay+1)& (0+255),f,c
  1117  0009DC  D7FA               	bra	u1877
  1118  0009DE  D000               	nop2	
  1119                           
  1120                           ;subroutines.c: 100:                 }
  1121  0009E0  4A35               	infsnz	stopAndDisplay@i,f,c
  1122  0009E2  2A36               	incf	stopAndDisplay@i+1,f,c
  1123  0009E4  BE36               	btfsc	stopAndDisplay@i+1,7,c
  1124  0009E6  D7F0               	goto	l2603
  1125  0009E8  5036               	movf	stopAndDisplay@i+1,w,c
  1126  0009EA  E104               	bnz	u1800
  1127  0009EC  0E0A               	movlw	10
  1128  0009EE  5C35               	subwf	stopAndDisplay@i,w,c
  1129  0009F0  A0D8               	btfss	status,0,c
  1130  0009F2  D7EA               	goto	l2603
  1131  0009F4                     u1800:
  1132                           
  1133                           ;subroutines.c: 101:                 ClearLCD();
  1134  0009F4  EC2B  F008         	call	_ClearLCD	;wreg free
  1135  0009F8  00FF               	reset		;# 
  1136  0009FA                     l2609:
  1137                           
  1138                           ;subroutines.c: 93:             while(PORTDbits.RD2 == 1)
  1139  0009FA  A483               	btfss	3971,2,c	;volatile
  1140  0009FC  D7FE               	goto	l2609
  1141  0009FE  D7D8               	goto	l2593
  1142  000A00                     l2611:
  1143                           
  1144                           ;subroutines.c: 107:     {;subroutines.c: 108:         return 0;
  1145  000A00  0E00               	movlw	0
  1146  000A02  0012               	return		;funcret
  1147  000A04                     __end_of_stopAndDisplay:
  1148                           	opt callstack 0
  1149                           
  1150 ;; *************** function _stop *****************
  1151 ;; Defined at:
  1152 ;;		line 40 in file "dc_motor.c"
  1153 ;; Parameters:    Size  Location     Type
  1154 ;;  mL              2   33[COMRAM] PTR struct DC_motor
  1155 ;;		 -> main@motorL(9), 
  1156 ;;  mR              2   35[COMRAM] PTR struct DC_motor
  1157 ;;		 -> main@motorR(9), 
  1158 ;;  initial_spee    2   37[COMRAM] int 
  1159 ;; Auto vars:     Size  Location     Type
  1160 ;;  i               2   40[COMRAM] int 
  1161 ;; Return value:  Size  Location     Type
  1162 ;;                  1    wreg      void 
  1163 ;; Registers used:
  1164 ;;		wreg, fsr2l, fsr2h, status,2, status,0, prodl, prodh, cstack
  1165 ;; Tracked objects:
  1166 ;;		On entry : 0/0
  1167 ;;		On exit  : 0/0
  1168 ;;		Unchanged: 0/0
  1169 ;; Data sizes:     COMRAM   BANK0   BANK1   BANK2
  1170 ;;      Params:         6       0       0       0
  1171 ;;      Locals:         2       0       0       0
  1172 ;;      Temps:          1       0       0       0
  1173 ;;      Totals:         9       0       0       0
  1174 ;;Total ram usage:        9 bytes
  1175 ;; Hardware stack levels used:    1
  1176 ;; Hardware stack levels required when called:    5
  1177 ;; This function calls:
  1178 ;;		_setMotorPWM
  1179 ;; This function is called by:
  1180 ;;		_stopAndDisplay
  1181 ;; This function uses a non-reentrant model
  1182 ;;
  1183                           
  1184                           	psect	text3
  1185  000D44                     __ptext3:
  1186                           	opt callstack 0
  1187  000D44                     _stop:
  1188                           	opt callstack 24
  1189                           
  1190                           ;dc_motor.c: 40: void stop(struct DC_motor *mL, struct DC_motor *mR, int initial_speed);
      +                          dc_motor.c: 41: {;dc_motor.c: 42:  for(int i = initial_speed; i > 0; i--)
  1191                           
  1192                           ;incstack = 0
  1193  000D44  C026  F029         	movff	stop@initial_speed,stop@i
  1194  000D48  C027  F02A         	movff	stop@initial_speed+1,stop@i+1
  1195  000D4C                     l2339:
  1196  000D4C  BE2A               	btfsc	stop@i+1,7,c
  1197  000D4E  0012               	return	
  1198  000D50  502A               	movf	stop@i+1,w,c
  1199  000D52  E103               	bnz	l2343
  1200  000D54  0429               	decf	stop@i,w,c
  1201  000D56  A0D8               	btfss	status,0,c
  1202  000D58  0012               	return	
  1203  000D5A                     l2343:
  1204                           
  1205                           ;dc_motor.c: 43:     {;dc_motor.c: 44:         mL->power = i;
  1206  000D5A  C022  FFD9         	movff	stop@mL,fsr2l
  1207  000D5E  C023  FFDA         	movff	stop@mL+1,fsr2h
  1208  000D62  C029  FFDF         	movff	stop@i,indf2
  1209                           
  1210                           ;dc_motor.c: 45:         mR->power = i;
  1211  000D66  C024  FFD9         	movff	stop@mR,fsr2l
  1212  000D6A  C025  FFDA         	movff	stop@mR+1,fsr2h
  1213  000D6E  C029  FFDF         	movff	stop@i,indf2
  1214                           
  1215                           ;dc_motor.c: 46:         setMotorPWM(mL);
  1216  000D72  C022  F019         	movff	stop@mL,setMotorPWM@m
  1217  000D76  C023  F01A         	movff	stop@mL+1,setMotorPWM@m+1
  1218  000D7A  EC75  F002         	call	_setMotorPWM	;wreg free
  1219                           
  1220                           ;dc_motor.c: 47:         setMotorPWM(mR);
  1221  000D7E  C024  F019         	movff	stop@mR,setMotorPWM@m
  1222  000D82  C025  F01A         	movff	stop@mR+1,setMotorPWM@m+1
  1223  000D86  EC75  F002         	call	_setMotorPWM	;wreg free
  1224                           
  1225                           ;dc_motor.c: 48:         _delay((unsigned long)((1)*(8000000/4000.0)));
  1226  000D8A  0E03               	movlw	3
  1227  000D8C  6E28               	movwf	??_stop& (0+255),c
  1228  000D8E  0E98               	movlw	152
  1229  000D90                     u1887:
  1230  000D90  2EE8               	decfsz	wreg,f,c
  1231  000D92  D7FE               	bra	u1887
  1232  000D94  2E28               	decfsz	??_stop& (0+255),f,c
  1233  000D96  D7FC               	bra	u1887
  1234                           
  1235                           ;dc_motor.c: 49:     }
  1236  000D98  0629               	decf	stop@i,f,c
  1237  000D9A  A0D8               	btfss	status,0,c
  1238  000D9C  062A               	decf	stop@i+1,f,c
  1239  000D9E  D7D6               	goto	l2339
  1240  000DA0                     __end_of_stop:
  1241                           	opt callstack 0
  1242                           
  1243 ;; *************** function _display_RFID *****************
  1244 ;; Defined at:
  1245 ;;		line 107 in file "RFID.c"
  1246 ;; Parameters:    Size  Location     Type
  1247 ;;  dataBuf         2   15[COMRAM] PTR volatile unsigned ch
  1248 ;;		 -> RFIDbuf(12), 
  1249 ;; Auto vars:     Size  Location     Type
  1250 ;;  i               2   17[COMRAM] int 
  1251 ;; Return value:  Size  Location     Type
  1252 ;;                  1    wreg      void 
  1253 ;; Registers used:
  1254 ;;		wreg, fsr2l, fsr2h, status,2, status,0, cstack
  1255 ;; Tracked objects:
  1256 ;;		On entry : 0/0
  1257 ;;		On exit  : 0/0
  1258 ;;		Unchanged: 0/0
  1259 ;; Data sizes:     COMRAM   BANK0   BANK1   BANK2
  1260 ;;      Params:         2       0       0       0
  1261 ;;      Locals:         2       0       0       0
  1262 ;;      Temps:          0       0       0       0
  1263 ;;      Totals:         4       0       0       0
  1264 ;;Total ram usage:        4 bytes
  1265 ;; Hardware stack levels used:    1
  1266 ;; Hardware stack levels required when called:    7
  1267 ;; This function calls:
  1268 ;;		_ClearLCD
  1269 ;;		_SendLCD
  1270 ;;		_SetLine
  1271 ;; This function is called by:
  1272 ;;		_stopAndDisplay
  1273 ;; This function uses a non-reentrant model
  1274 ;;
  1275                           
  1276                           	psect	text4
  1277  000ECE                     __ptext4:
  1278                           	opt callstack 0
  1279  000ECE                     _display_RFID:
  1280                           	opt callstack 22
  1281                           
  1282                           ;RFID.c: 107: void display_RFID(volatile char dataBuf[]);RFID.c: 108: {;RFID.c: 109:    
      +                           ClearLCD();
  1283                           
  1284                           ;incstack = 0
  1285  000ECE  EC2B  F008         	call	_ClearLCD	;wreg free
  1286                           
  1287                           ;RFID.c: 110:     SetLine(1);
  1288  000ED2  0E01               	movlw	1
  1289  000ED4  ECD4  F007         	call	_SetLine
  1290                           
  1291                           ;RFID.c: 111:     for(int i=0;i<10;i++)
  1292  000ED8  0E00               	movlw	0
  1293  000EDA  6E13               	movwf	display_RFID@i+1,c
  1294  000EDC  0E00               	movlw	0
  1295  000EDE  6E12               	movwf	display_RFID@i,c
  1296  000EE0                     l2443:
  1297                           
  1298                           ;RFID.c: 112:     {;RFID.c: 113:         SendLCD(dataBuf[i],1);
  1299  000EE0  0E01               	movlw	1
  1300  000EE2  6E0D               	movwf	SendLCD@type,c
  1301  000EE4  5012               	movf	display_RFID@i,w,c
  1302  000EE6  2410               	addwf	display_RFID@dataBuf,w,c
  1303  000EE8  6ED9               	movwf	fsr2l,c
  1304  000EEA  5013               	movf	display_RFID@i+1,w,c
  1305  000EEC  2011               	addwfc	display_RFID@dataBuf+1,w,c
  1306  000EEE  6EDA               	movwf	fsr2h,c
  1307  000EF0  50DF               	movf	indf2,w,c
  1308  000EF2  ECBC  F007         	call	_SendLCD
  1309                           
  1310                           ;RFID.c: 114:     }
  1311  000EF6  4A12               	infsnz	display_RFID@i,f,c
  1312  000EF8  2A13               	incf	display_RFID@i+1,f,c
  1313  000EFA  BE13               	btfsc	display_RFID@i+1,7,c
  1314  000EFC  D7F1               	goto	l2443
  1315  000EFE  5013               	movf	display_RFID@i+1,w,c
  1316  000F00  E105               	bnz	u1690
  1317  000F02  0E0A               	movlw	10
  1318  000F04  5C12               	subwf	display_RFID@i,w,c
  1319  000F06  B0D8               	btfsc	status,0,c
  1320  000F08  0012               	return	
  1321  000F0A  D7EA               	goto	l2443
  1322  000F0C                     u1690:
  1323  000F0C  0012               	return		;funcret
  1324  000F0E                     __end_of_display_RFID:
  1325                           	opt callstack 0
  1326                           
  1327 ;; *************** function _check_RFID *****************
  1328 ;; Defined at:
  1329 ;;		line 70 in file "RFID.c"
  1330 ;; Parameters:    Size  Location     Type
  1331 ;;  dataBuf         2   16[COMRAM] PTR volatile unsigned ch
  1332 ;;		 -> RFIDbuf(12), 
  1333 ;; Auto vars:     Size  Location     Type
  1334 ;;  i               2   38[COMRAM] int 
  1335 ;;  hexBuf         12   20[COMRAM] unsigned char [12]
  1336 ;;  checksum        1   37[COMRAM] unsigned char 
  1337 ;;  byte5           1   36[COMRAM] unsigned char 
  1338 ;;  byte4           1   35[COMRAM] unsigned char 
  1339 ;;  byte3           1   34[COMRAM] unsigned char 
  1340 ;;  byte2           1   33[COMRAM] unsigned char 
  1341 ;;  byte1           1   32[COMRAM] unsigned char 
  1342 ;; Return value:  Size  Location     Type
  1343 ;;                  1    wreg      void 
  1344 ;; Registers used:
  1345 ;;		wreg, fsr0l, fsr0h, fsr1l, fsr1h, fsr2l, fsr2h, status,2, status,0, tblptrl, tblptrh, tblptru, cstack
  1346 ;; Tracked objects:
  1347 ;;		On entry : 0/0
  1348 ;;		On exit  : 0/0
  1349 ;;		Unchanged: 0/0
  1350 ;; Data sizes:     COMRAM   BANK0   BANK1   BANK2
  1351 ;;      Params:         2       0       0       0
  1352 ;;      Locals:        20       0       0       0
  1353 ;;      Temps:          2       0       0       0
  1354 ;;      Totals:        24       0       0       0
  1355 ;;Total ram usage:       24 bytes
  1356 ;; Hardware stack levels used:    1
  1357 ;; Hardware stack levels required when called:    7
  1358 ;; This function calls:
  1359 ;;		_LCD_String
  1360 ;;		_SetLine
  1361 ;; This function is called by:
  1362 ;;		_stopAndDisplay
  1363 ;; This function uses a non-reentrant model
  1364 ;;
  1365                           
  1366                           	psect	text5
  1367  00039A                     __ptext5:
  1368                           	opt callstack 0
  1369  00039A                     _check_RFID:
  1370                           	opt callstack 22
  1371                           
  1372                           ;RFID.c: 70: void check_RFID(volatile char dataBuf[]);RFID.c: 71: {;RFID.c: 73:     char
      +                           hexBuf[12];;RFID.c: 75:     for(int i=0; i<12;i++)
  1373                           
  1374                           ;incstack = 0
  1375  00039A  0E00               	movlw	0
  1376  00039C  6E28               	movwf	check_RFID@i+1,c
  1377  00039E  0E00               	movlw	0
  1378  0003A0  6E27               	movwf	check_RFID@i,c
  1379  0003A2                     l2409:
  1380                           
  1381                           ;RFID.c: 76:     {;RFID.c: 77:         if ((dataBuf[i] >= '0') && (dataBuf[i] <= '9'))
  1382  0003A2  5027               	movf	check_RFID@i,w,c
  1383  0003A4  2411               	addwf	check_RFID@dataBuf,w,c
  1384  0003A6  6ED9               	movwf	fsr2l,c
  1385  0003A8  5028               	movf	check_RFID@i+1,w,c
  1386  0003AA  2012               	addwfc	check_RFID@dataBuf+1,w,c
  1387  0003AC  6EDA               	movwf	fsr2h,c
  1388  0003AE  0E2F               	movlw	47
  1389  0003B0  64DF               	cpfsgt	indf2,c
  1390  0003B2  D018               	goto	l2415
  1391  0003B4  5027               	movf	check_RFID@i,w,c
  1392  0003B6  2411               	addwf	check_RFID@dataBuf,w,c
  1393  0003B8  6ED9               	movwf	fsr2l,c
  1394  0003BA  5028               	movf	check_RFID@i+1,w,c
  1395  0003BC  2012               	addwfc	check_RFID@dataBuf+1,w,c
  1396  0003BE  6EDA               	movwf	fsr2h,c
  1397  0003C0  0E3A               	movlw	58
  1398  0003C2  60DF               	cpfslt	indf2,c
  1399  0003C4  D00F               	goto	l2415
  1400                           
  1401                           ;RFID.c: 78:         {;RFID.c: 79:             hexBuf[i] = dataBuf[i] - '0';
  1402  0003C6  0E15               	movlw	low check_RFID@hexBuf
  1403  0003C8  2427               	addwf	check_RFID@i,w,c
  1404  0003CA  6ED9               	movwf	fsr2l,c
  1405  0003CC  0E00               	movlw	high check_RFID@hexBuf
  1406  0003CE  2028               	addwfc	check_RFID@i+1,w,c
  1407  0003D0  6EDA               	movwf	fsr2h,c
  1408  0003D2  5027               	movf	check_RFID@i,w,c
  1409  0003D4  2411               	addwf	check_RFID@dataBuf,w,c
  1410  0003D6  6EE1               	movwf	fsr1l,c
  1411  0003D8  5028               	movf	check_RFID@i+1,w,c
  1412  0003DA  2012               	addwfc	check_RFID@dataBuf+1,w,c
  1413  0003DC  6EE2               	movwf	fsr1h,c
  1414  0003DE  50E7               	movf	indf1,w,c
  1415  0003E0  0FD0               	addlw	208
  1416  0003E2  D020               	goto	L4
  1417  0003E4                     l2415:
  1418  0003E4  5027               	movf	check_RFID@i,w,c
  1419  0003E6  2411               	addwf	check_RFID@dataBuf,w,c
  1420  0003E8  6ED9               	movwf	fsr2l,c
  1421  0003EA  5028               	movf	check_RFID@i+1,w,c
  1422  0003EC  2012               	addwfc	check_RFID@dataBuf+1,w,c
  1423  0003EE  6EDA               	movwf	fsr2h,c
  1424  0003F0  0E40               	movlw	64
  1425  0003F2  64DF               	cpfsgt	indf2,c
  1426  0003F4  D018               	goto	l2421
  1427  0003F6  5027               	movf	check_RFID@i,w,c
  1428  0003F8  2411               	addwf	check_RFID@dataBuf,w,c
  1429  0003FA  6ED9               	movwf	fsr2l,c
  1430  0003FC  5028               	movf	check_RFID@i+1,w,c
  1431  0003FE  2012               	addwfc	check_RFID@dataBuf+1,w,c
  1432  000400  6EDA               	movwf	fsr2h,c
  1433  000402  0E47               	movlw	71
  1434  000404  60DF               	cpfslt	indf2,c
  1435  000406  D00F               	goto	l2421
  1436                           
  1437                           ;RFID.c: 81:         {;RFID.c: 82:             hexBuf[i] = 10 + dataBuf[i] - 'A';
  1438  000408  0E15               	movlw	low check_RFID@hexBuf
  1439  00040A  2427               	addwf	check_RFID@i,w,c
  1440  00040C  6ED9               	movwf	fsr2l,c
  1441  00040E  0E00               	movlw	high check_RFID@hexBuf
  1442  000410  2028               	addwfc	check_RFID@i+1,w,c
  1443  000412  6EDA               	movwf	fsr2h,c
  1444  000414  5027               	movf	check_RFID@i,w,c
  1445  000416  2411               	addwf	check_RFID@dataBuf,w,c
  1446  000418  6EE1               	movwf	fsr1l,c
  1447  00041A  5028               	movf	check_RFID@i+1,w,c
  1448  00041C  2012               	addwfc	check_RFID@dataBuf+1,w,c
  1449  00041E  6EE2               	movwf	fsr1h,c
  1450  000420  50E7               	movf	indf1,w,c
  1451  000422  0FC9               	addlw	201
  1452  000424                     L4:
  1453  000424  6EDF               	movwf	indf2,c
  1454  000426                     l2421:
  1455                           
  1456                           ;RFID.c: 84:     }
  1457  000426  4A27               	infsnz	check_RFID@i,f,c
  1458  000428  2A28               	incf	check_RFID@i+1,f,c
  1459  00042A  BE28               	btfsc	check_RFID@i+1,7,c
  1460  00042C  D7BA               	goto	l2409
  1461  00042E  5028               	movf	check_RFID@i+1,w,c
  1462  000430  E104               	bnz	u1530
  1463  000432  0E0C               	movlw	12
  1464  000434  5C27               	subwf	check_RFID@i,w,c
  1465  000436  A0D8               	btfss	status,0,c
  1466  000438  D7B4               	goto	l2409
  1467  00043A                     u1530:
  1468                           
  1469                           ;RFID.c: 86:     char byte1 = 0x00 | (hexBuf[0] < 1) | hexBuf[1];
  1470  00043A  5015               	movf	check_RFID@hexBuf,w,c
  1471  00043C  A4D8               	btfss	status,2,c
  1472  00043E  D002               	goto	u1540
  1473  000440  0E01               	movlw	1
  1474  000442  D001               	goto	u1550
  1475  000444                     u1540:
  1476  000444  0E00               	movlw	0
  1477  000446                     u1550:
  1478  000446  1016               	iorwf	check_RFID@hexBuf+1,w,c
  1479  000448  6E21               	movwf	check_RFID@byte1,c
  1480                           
  1481                           ;RFID.c: 87:     char byte2 = 0x00 | (hexBuf[2] < 1) | hexBuf[3];
  1482  00044A  5017               	movf	check_RFID@hexBuf+2,w,c
  1483  00044C  A4D8               	btfss	status,2,c
  1484  00044E  D002               	goto	u1560
  1485  000450  0E01               	movlw	1
  1486  000452  D001               	goto	u1570
  1487  000454                     u1560:
  1488  000454  0E00               	movlw	0
  1489  000456                     u1570:
  1490  000456  1018               	iorwf	check_RFID@hexBuf+3,w,c
  1491  000458  6E22               	movwf	check_RFID@byte2,c
  1492                           
  1493                           ;RFID.c: 88:     char byte3 = 0x00 | (hexBuf[4] < 1) | hexBuf[5];
  1494  00045A  5019               	movf	check_RFID@hexBuf+4,w,c
  1495  00045C  A4D8               	btfss	status,2,c
  1496  00045E  D002               	goto	u1580
  1497  000460  0E01               	movlw	1
  1498  000462  D001               	goto	u1590
  1499  000464                     u1580:
  1500  000464  0E00               	movlw	0
  1501  000466                     u1590:
  1502  000466  101A               	iorwf	check_RFID@hexBuf+5,w,c
  1503  000468  6E23               	movwf	check_RFID@byte3,c
  1504                           
  1505                           ;RFID.c: 89:     char byte4 = 0x00 | (hexBuf[6] < 1) | hexBuf[7];
  1506  00046A  501B               	movf	check_RFID@hexBuf+6,w,c
  1507  00046C  A4D8               	btfss	status,2,c
  1508  00046E  D002               	goto	u1600
  1509  000470  0E01               	movlw	1
  1510  000472  D001               	goto	u1610
  1511  000474                     u1600:
  1512  000474  0E00               	movlw	0
  1513  000476                     u1610:
  1514  000476  101C               	iorwf	check_RFID@hexBuf+7,w,c
  1515  000478  6E24               	movwf	check_RFID@byte4,c
  1516                           
  1517                           ;RFID.c: 90:     char byte5 = 0x00 | (hexBuf[8] < 1) | hexBuf[9];
  1518  00047A  501D               	movf	check_RFID@hexBuf+8,w,c
  1519  00047C  A4D8               	btfss	status,2,c
  1520  00047E  D002               	goto	u1620
  1521  000480  0E01               	movlw	1
  1522  000482  D001               	goto	u1630
  1523  000484                     u1620:
  1524  000484  0E00               	movlw	0
  1525  000486                     u1630:
  1526  000486  101E               	iorwf	check_RFID@hexBuf+9,w,c
  1527  000488  6E25               	movwf	check_RFID@byte5,c
  1528                           
  1529                           ;RFID.c: 91:     char checksum = 0x00 | (hexBuf[10] < 1) | hexBuf[11];
  1530  00048A  501F               	movf	check_RFID@hexBuf+10,w,c
  1531  00048C  A4D8               	btfss	status,2,c
  1532  00048E  D002               	goto	u1640
  1533  000490  0E01               	movlw	1
  1534  000492  D001               	goto	u1650
  1535  000494                     u1640:
  1536  000494  0E00               	movlw	0
  1537  000496                     u1650:
  1538  000496  1020               	iorwf	check_RFID@hexBuf+11,w,c
  1539  000498  6E26               	movwf	check_RFID@checksum,c
  1540                           
  1541                           ;RFID.c: 94:     if(byte1^byte2^byte3^byte4^byte5 == checksum)
  1542  00049A  5021               	movf	check_RFID@byte1,w,c
  1543  00049C  1822               	xorwf	check_RFID@byte2,w,c
  1544  00049E  1823               	xorwf	check_RFID@byte3,w,c
  1545  0004A0  1824               	xorwf	check_RFID@byte4,w,c
  1546  0004A2  6E13               	movwf	??_check_RFID& (0+255),c
  1547  0004A4  6A14               	clrf	(??_check_RFID+1)& (0+255),c
  1548  0004A6  5026               	movf	check_RFID@checksum,w,c
  1549  0004A8  1825               	xorwf	check_RFID@byte5,w,c
  1550  0004AA  A4D8               	btfss	status,2,c
  1551  0004AC  D002               	goto	u1660
  1552  0004AE  0E01               	movlw	1
  1553  0004B0  D001               	goto	u1670
  1554  0004B2                     u1660:
  1555  0004B2  0E00               	movlw	0
  1556  0004B4                     u1670:
  1557  0004B4  1A13               	xorwf	??_check_RFID,f,c
  1558  0004B6  0E00               	movlw	0
  1559  0004B8  1A14               	xorwf	??_check_RFID+1,f,c
  1560  0004BA  5013               	movf	??_check_RFID,w,c
  1561  0004BC  1014               	iorwf	??_check_RFID+1,w,c
  1562  0004BE  B4D8               	btfsc	status,2,c
  1563  0004C0  D00A               	goto	l2431
  1564                           
  1565                           ;RFID.c: 95:     {;RFID.c: 97:         SetLine(2);
  1566  0004C2  0E02               	movlw	2
  1567  0004C4  ECD4  F007         	call	_SetLine
  1568                           
  1569                           ;RFID.c: 98:         LCD_String("CHECKSUM PASSED");
  1570  0004C8  0E41               	movlw	low STR_2
  1571  0004CA  6E0F               	movwf	LCD_String@string,c
  1572  0004CC  0E03               	movlw	high STR_2
  1573  0004CE  6E10               	movwf	LCD_String@string+1,c
  1574  0004D0  EC73  F006         	call	_LCD_String	;wreg free
  1575                           
  1576                           ;RFID.c: 99:     }
  1577  0004D4  0012               	return	
  1578  0004D6                     l2431:
  1579                           
  1580                           ;RFID.c: 102:         SetLine(2);
  1581  0004D6  0E02               	movlw	2
  1582  0004D8  ECD4  F007         	call	_SetLine
  1583                           
  1584                           ;RFID.c: 103:         LCD_String("CHECKSUM FAILED");
  1585  0004DC  0E31               	movlw	low STR_3
  1586  0004DE  6E0F               	movwf	LCD_String@string,c
  1587  0004E0  0E03               	movlw	high STR_3
  1588  0004E2  6E10               	movwf	LCD_String@string+1,c
  1589  0004E4  EC73  F006         	call	_LCD_String	;wreg free
  1590  0004E8  0012               	return		;funcret
  1591  0004EA                     __end_of_check_RFID:
  1592                           	opt callstack 0
  1593                           
  1594 ;; *************** function _SetLine *****************
  1595 ;; Defined at:
  1596 ;;		line 107 in file "LCDIO.c"
  1597 ;; Parameters:    Size  Location     Type
  1598 ;;  line            1    wreg     unsigned char 
  1599 ;; Auto vars:     Size  Location     Type
  1600 ;;  line            1   14[COMRAM] unsigned char 
  1601 ;; Return value:  Size  Location     Type
  1602 ;;                  1    wreg      void 
  1603 ;; Registers used:
  1604 ;;		wreg, status,2, status,0, cstack
  1605 ;; Tracked objects:
  1606 ;;		On entry : 0/0
  1607 ;;		On exit  : 0/0
  1608 ;;		Unchanged: 0/0
  1609 ;; Data sizes:     COMRAM   BANK0   BANK1   BANK2
  1610 ;;      Params:         0       0       0       0
  1611 ;;      Locals:         1       0       0       0
  1612 ;;      Temps:          0       0       0       0
  1613 ;;      Totals:         1       0       0       0
  1614 ;;Total ram usage:        1 bytes
  1615 ;; Hardware stack levels used:    1
  1616 ;; Hardware stack levels required when called:    6
  1617 ;; This function calls:
  1618 ;;		_SendLCD
  1619 ;; This function is called by:
  1620 ;;		_check_RFID
  1621 ;;		_display_RFID
  1622 ;;		_waitForInput
  1623 ;;		_debug
  1624 ;; This function uses a non-reentrant model
  1625 ;;
  1626                           
  1627                           	psect	text6
  1628  000FA8                     __ptext6:
  1629                           	opt callstack 0
  1630  000FA8                     _SetLine:
  1631                           	opt callstack 23
  1632                           
  1633                           ;incstack = 0
  1634                           ;SetLine@line stored from wreg
  1635  000FA8  6E0F               	movwf	SetLine@line,c
  1636                           
  1637                           ;LCDIO.c: 109:     if(line == 1){
  1638  000FAA  040F               	decf	SetLine@line,w,c
  1639  000FAC  A4D8               	btfss	status,2,c
  1640  000FAE  D005               	goto	l2271
  1641                           
  1642                           ;LCDIO.c: 110:         SendLCD(0x80,0);
  1643  000FB0  0E00               	movlw	0
  1644  000FB2  6E0D               	movwf	SendLCD@type,c
  1645  000FB4  0E80               	movlw	128
  1646  000FB6  ECBC  F007         	call	_SendLCD
  1647  000FBA                     l2271:
  1648                           
  1649                           ;LCDIO.c: 113:     if(line == 2){
  1650  000FBA  0E02               	movlw	2
  1651  000FBC  180F               	xorwf	SetLine@line,w,c
  1652  000FBE  A4D8               	btfss	status,2,c
  1653  000FC0  D005               	goto	l2275
  1654                           
  1655                           ;LCDIO.c: 114:         SendLCD(0xC0,0);
  1656  000FC2  0E00               	movlw	0
  1657  000FC4  6E0D               	movwf	SendLCD@type,c
  1658  000FC6  0EC0               	movlw	192
  1659  000FC8  ECBC  F007         	call	_SendLCD
  1660  000FCC                     l2275:
  1661                           
  1662                           ;LCDIO.c: 116:  _delay((unsigned long)((50)*(8000000/4000000.0)));
  1663  000FCC  0E21               	movlw	33
  1664  000FCE                     u1897:
  1665  000FCE  2EE8               	decfsz	wreg,f,c
  1666  000FD0  D7FE               	bra	u1897
  1667  000FD2  F000               	nop	
  1668  000FD4  0012               	return		;funcret
  1669  000FD6                     __end_of_SetLine:
  1670                           	opt callstack 0
  1671                           
  1672 ;; *************** function _setup *****************
  1673 ;; Defined at:
  1674 ;;		line 45 in file "main.c"
  1675 ;; Parameters:    Size  Location     Type
  1676 ;;		None
  1677 ;; Auto vars:     Size  Location     Type
  1678 ;;		None
  1679 ;; Return value:  Size  Location     Type
  1680 ;;                  1    wreg      void 
  1681 ;; Registers used:
  1682 ;;		wreg, status,2, status,0, cstack
  1683 ;; Tracked objects:
  1684 ;;		On entry : 0/0
  1685 ;;		On exit  : 0/0
  1686 ;;		Unchanged: 0/0
  1687 ;; Data sizes:     COMRAM   BANK0   BANK1   BANK2
  1688 ;;      Params:         0       0       0       0
  1689 ;;      Locals:         0       0       0       0
  1690 ;;      Temps:          0       0       0       0
  1691 ;;      Totals:         0       0       0       0
  1692 ;;Total ram usage:        0 bytes
  1693 ;; Hardware stack levels used:    1
  1694 ;; Hardware stack levels required when called:    7
  1695 ;; This function calls:
  1696 ;;		_initPWM
  1697 ;;		_init_LCD
  1698 ;;		_init_RFID
  1699 ;;		_init_sensor
  1700 ;; This function is called by:
  1701 ;;		_main
  1702 ;; This function uses a non-reentrant model
  1703 ;;
  1704                           
  1705                           	psect	text7
  1706  000F0E                     __ptext7:
  1707                           	opt callstack 0
  1708  000F0E                     _setup:
  1709                           	opt callstack 23
  1710                           
  1711                           ;main.c: 48:     OSCCON = 0x72;
  1712                           
  1713                           ;incstack = 0
  1714  000F0E  0E72               	movlw	114
  1715  000F10  6ED3               	movwf	4051,c	;volatile
  1716  000F12                     l55:
  1717  000F12  A4D3               	btfss	4051,2,c	;volatile
  1718  000F14  D7FE               	goto	l55
  1719                           
  1720                           ;main.c: 50:     INTCONbits.GIEH = 1;
  1721  000F16  8EF2               	bsf	4082,7,c	;volatile
  1722                           
  1723                           ;main.c: 51:     INTCONbits.GIEL = 1;
  1724  000F18  8CF2               	bsf	4082,6,c	;volatile
  1725                           
  1726                           ;main.c: 52:     RCONbits.IPEN=1;
  1727  000F1A  8ED0               	bsf	4048,7,c	;volatile
  1728                           
  1729                           ;main.c: 55:     init_LCD();
  1730  000F1C  ECF5  F003         	call	_init_LCD	;wreg free
  1731                           
  1732                           ;main.c: 56:     init_RFID();
  1733  000F20  EC11  F008         	call	_init_RFID	;wreg free
  1734                           
  1735                           ;main.c: 57:     init_sensor();
  1736  000F24  EC38  F008         	call	_init_sensor	;wreg free
  1737                           
  1738                           ;main.c: 58:     initPWM(199);
  1739  000F28  0E00               	movlw	0
  1740  000F2A  6E0C               	movwf	initPWM@PWMperiod+1,c
  1741  000F2C  0EC7               	movlw	199
  1742  000F2E  6E0B               	movwf	initPWM@PWMperiod,c
  1743  000F30  EC1E  F008         	call	_initPWM	;wreg free
  1744                           
  1745                           ;main.c: 61:     TRISBbits.RB0 = 0;
  1746  000F34  9093               	bcf	3987,0,c	;volatile
  1747                           
  1748                           ;main.c: 62:     TRISBbits.RB2 = 0;
  1749  000F36  9493               	bcf	3987,2,c	;volatile
  1750                           
  1751                           ;main.c: 64:     TRISDbits.RD2 = 1;
  1752  000F38  8495               	bsf	3989,2,c	;volatile
  1753                           
  1754                           ;main.c: 66:     T0CON = 0b11000111;
  1755  000F3A  0EC7               	movlw	199
  1756  000F3C  6ED5               	movwf	4053,c	;volatile
  1757                           
  1758                           ;main.c: 70:     INTCONbits.TMR0IE=1;
  1759  000F3E  8AF2               	bsf	4082,5,c	;volatile
  1760                           
  1761                           ;main.c: 71:     INTCON2bits.TMR0IP=0;
  1762  000F40  94F1               	bcf	4081,2,c	;volatile
  1763  000F42  0012               	return		;funcret
  1764  000F44                     __end_of_setup:
  1765                           	opt callstack 0
  1766                           
  1767 ;; *************** function _init_sensor *****************
  1768 ;; Defined at:
  1769 ;;		line 17 in file "signal_processing.c"
  1770 ;; Parameters:    Size  Location     Type
  1771 ;;		None
  1772 ;; Auto vars:     Size  Location     Type
  1773 ;;  throwaway       2    0        unsigned int 
  1774 ;; Return value:  Size  Location     Type
  1775 ;;                  1    wreg      void 
  1776 ;; Registers used:
  1777 ;;		wreg, status,2, status,0
  1778 ;; Tracked objects:
  1779 ;;		On entry : 0/0
  1780 ;;		On exit  : 0/0
  1781 ;;		Unchanged: 0/0
  1782 ;; Data sizes:     COMRAM   BANK0   BANK1   BANK2
  1783 ;;      Params:         0       0       0       0
  1784 ;;      Locals:         2       0       0       0
  1785 ;;      Temps:          0       0       0       0
  1786 ;;      Totals:         2       0       0       0
  1787 ;;Total ram usage:        2 bytes
  1788 ;; Hardware stack levels used:    1
  1789 ;; Hardware stack levels required when called:    3
  1790 ;; This function calls:
  1791 ;;		Nothing
  1792 ;; This function is called by:
  1793 ;;		_setup
  1794 ;; This function uses a non-reentrant model
  1795 ;;
  1796                           
  1797                           	psect	text8
  1798  001070                     __ptext8:
  1799                           	opt callstack 0
  1800  001070                     _init_sensor:
  1801                           	opt callstack 26
  1802                           
  1803                           ;signal_processing.c: 19:     T5CON =0b00000001;
  1804                           
  1805                           ;incstack = 0
  1806  001070  0E01               	movlw	1
  1807  001072  6EB7               	movwf	4023,c	;volatile
  1808                           
  1809                           ;signal_processing.c: 20:     TRISAbits.RA2 = 1;
  1810  001074  8492               	bsf	3986,2,c	;volatile
  1811                           
  1812                           ;signal_processing.c: 23:     ANSEL0 = 0;
  1813  001076  0E00               	movlw	0
  1814  001078  6EB8               	movwf	4024,c	;volatile
  1815                           
  1816                           ;signal_processing.c: 24:     ANSEL1 = 0;
  1817  00107A  0E00               	movlw	0
  1818  00107C  6EB9               	movwf	4025,c	;volatile
  1819                           
  1820                           ;signal_processing.c: 26:     CAP1CON = 0b01000111;
  1821  00107E  0E47               	movlw	71
  1822  001080  6E63               	movwf	3939,c	;volatile
  1823  001082  5069               	movf	3945,w,c	;volatile
  1824  001084  5068               	movf	3944,w,c	;volatile
  1825  001086  0012               	return		;funcret
  1826  001088                     __end_of_init_sensor:
  1827                           	opt callstack 0
  1828                           
  1829 ;; *************** function _init_RFID *****************
  1830 ;; Defined at:
  1831 ;;		line 13 in file "RFID.c"
  1832 ;; Parameters:    Size  Location     Type
  1833 ;;		None
  1834 ;; Auto vars:     Size  Location     Type
  1835 ;;		None
  1836 ;; Return value:  Size  Location     Type
  1837 ;;                  1    wreg      void 
  1838 ;; Registers used:
  1839 ;;		wreg, status,2
  1840 ;; Tracked objects:
  1841 ;;		On entry : 0/0
  1842 ;;		On exit  : 0/0
  1843 ;;		Unchanged: 0/0
  1844 ;; Data sizes:     COMRAM   BANK0   BANK1   BANK2
  1845 ;;      Params:         0       0       0       0
  1846 ;;      Locals:         0       0       0       0
  1847 ;;      Temps:          0       0       0       0
  1848 ;;      Totals:         0       0       0       0
  1849 ;;Total ram usage:        0 bytes
  1850 ;; Hardware stack levels used:    1
  1851 ;; Hardware stack levels required when called:    3
  1852 ;; This function calls:
  1853 ;;		Nothing
  1854 ;; This function is called by:
  1855 ;;		_setup
  1856 ;; This function uses a non-reentrant model
  1857 ;;
  1858                           
  1859                           	psect	text9
  1860  001022                     __ptext9:
  1861                           	opt callstack 0
  1862  001022                     _init_RFID:
  1863                           	opt callstack 26
  1864                           
  1865                           ;RFID.c: 16:     TRISCbits.RC7 = 1;
  1866                           
  1867                           ;incstack = 0
  1868  001022  8E94               	bsf	3988,7,c	;volatile
  1869                           
  1870                           ;RFID.c: 19:     SPBRG = 203;
  1871  001024  0ECB               	movlw	203
  1872  001026  6EAF               	movwf	4015,c	;volatile
  1873                           
  1874                           ;RFID.c: 20:     SPBRGH = 0;
  1875  001028  0E00               	movlw	0
  1876  00102A  6EB0               	movwf	4016,c	;volatile
  1877                           
  1878                           ;RFID.c: 22:     BAUDCONbits.BRG16=1;
  1879  00102C  86AA               	bsf	4010,3,c	;volatile
  1880                           
  1881                           ;RFID.c: 23:     TXSTAbits.BRGH = 1;
  1882  00102E  84AC               	bsf	4012,2,c	;volatile
  1883                           
  1884                           ;RFID.c: 24:     RCSTAbits.CREN = 1;
  1885  001030  88AB               	bsf	4011,4,c	;volatile
  1886                           
  1887                           ;RFID.c: 25:     RCSTAbits.SPEN = 1;
  1888  001032  8EAB               	bsf	4011,7,c	;volatile
  1889                           
  1890                           ;RFID.c: 26:     TXSTAbits.TXEN = 1;
  1891  001034  8AAC               	bsf	4012,5,c	;volatile
  1892                           
  1893                           ;RFID.c: 28:     PIE1bits.RC1IE = 1;
  1894  001036  8A9D               	bsf	3997,5,c	;volatile
  1895                           
  1896                           ;RFID.c: 29:     IPR1bits.RC1IP = 1;
  1897  001038  8A9F               	bsf	3999,5,c	;volatile
  1898  00103A  0012               	return		;funcret
  1899  00103C                     __end_of_init_RFID:
  1900                           	opt callstack 0
  1901                           
  1902 ;; *************** function _init_LCD *****************
  1903 ;; Defined at:
  1904 ;;		line 56 in file "LCDIO.c"
  1905 ;; Parameters:    Size  Location     Type
  1906 ;;		None
  1907 ;; Auto vars:     Size  Location     Type
  1908 ;;		None
  1909 ;; Return value:  Size  Location     Type
  1910 ;;                  1    wreg      void 
  1911 ;; Registers used:
  1912 ;;		wreg, status,2, status,0, cstack
  1913 ;; Tracked objects:
  1914 ;;		On entry : 0/0
  1915 ;;		On exit  : 0/0
  1916 ;;		Unchanged: 0/0
  1917 ;; Data sizes:     COMRAM   BANK0   BANK1   BANK2
  1918 ;;      Params:         0       0       0       0
  1919 ;;      Locals:         0       0       0       0
  1920 ;;      Temps:          1       0       0       0
  1921 ;;      Totals:         1       0       0       0
  1922 ;;Total ram usage:        1 bytes
  1923 ;; Hardware stack levels used:    1
  1924 ;; Hardware stack levels required when called:    6
  1925 ;; This function calls:
  1926 ;;		_LCDout
  1927 ;;		_SendLCD
  1928 ;; This function is called by:
  1929 ;;		_setup
  1930 ;; This function uses a non-reentrant model
  1931 ;;
  1932                           
  1933                           	psect	text10
  1934  0007EA                     __ptext10:
  1935                           	opt callstack 0
  1936  0007EA                     _init_LCD:
  1937                           	opt callstack 23
  1938                           
  1939                           ;LCDIO.c: 59:  TRISCbits.RC0 = 0;
  1940                           
  1941                           ;incstack = 0
  1942  0007EA  9094               	bcf	3988,0,c	;volatile
  1943                           
  1944                           ;LCDIO.c: 60:  TRISAbits.RA7 = 0;
  1945  0007EC  9E92               	bcf	3986,7,c	;volatile
  1946                           
  1947                           ;LCDIO.c: 61:  TRISCbits.RC3 = 0;
  1948  0007EE  9694               	bcf	3988,3,c	;volatile
  1949                           
  1950                           ;LCDIO.c: 62:  TRISDbits.RD0 = 0;
  1951  0007F0  9095               	bcf	3989,0,c	;volatile
  1952                           
  1953                           ;LCDIO.c: 63:  TRISDbits.RD1 = 0;
  1954  0007F2  9295               	bcf	3989,1,c	;volatile
  1955                           
  1956                           ;LCDIO.c: 64:  TRISAbits.RA6 = 0;
  1957  0007F4  9C92               	bcf	3986,6,c	;volatile
  1958                           
  1959                           ;LCDIO.c: 67:  LATDbits.LATD0 = 0;
  1960  0007F6  908C               	bcf	3980,0,c	;volatile
  1961                           
  1962                           ;LCDIO.c: 68:  LATDbits.LATD1 = 0;
  1963  0007F8  928C               	bcf	3980,1,c	;volatile
  1964                           
  1965                           ;LCDIO.c: 69:  LATCbits.LATC3 = 0;
  1966  0007FA  968B               	bcf	3979,3,c	;volatile
  1967                           
  1968                           ;LCDIO.c: 70:  LATCbits.LATC0 = 0;
  1969  0007FC  908B               	bcf	3979,0,c	;volatile
  1970                           
  1971                           ;LCDIO.c: 71:  LATAbits.LATA6 = 0;
  1972  0007FE  9C89               	bcf	3977,6,c	;volatile
  1973                           
  1974                           ;LCDIO.c: 72:  LATAbits.LATA7 = 0;
  1975  000800  9E89               	bcf	3977,7,c	;volatile
  1976                           
  1977                           ;LCDIO.c: 75:  _delay((unsigned long)((15)*(8000000/4000.0)));
  1978  000802  0E27               	movlw	39
  1979  000804  6E0F               	movwf	??_init_LCD& (0+255),c
  1980  000806  0EF5               	movlw	245
  1981  000808                     u1907:
  1982  000808  2EE8               	decfsz	wreg,f,c
  1983  00080A  D7FE               	bra	u1907
  1984  00080C  2E0F               	decfsz	??_init_LCD& (0+255),f,c
  1985  00080E  D7FC               	bra	u1907
  1986  000810  F000               	nop	
  1987                           
  1988                           ;LCDIO.c: 76:  LCDout(0b0011);
  1989  000812  0E03               	movlw	3
  1990  000814  EC07  F006         	call	_LCDout
  1991                           
  1992                           ;LCDIO.c: 77:  _delay((unsigned long)((5)*(8000000/4000.0)));
  1993  000818  0E0D               	movlw	13
  1994  00081A  6E0F               	movwf	??_init_LCD& (0+255),c
  1995  00081C  0EFC               	movlw	252
  1996  00081E                     u1917:
  1997  00081E  2EE8               	decfsz	wreg,f,c
  1998  000820  D7FE               	bra	u1917
  1999  000822  2E0F               	decfsz	??_init_LCD& (0+255),f,c
  2000  000824  D7FC               	bra	u1917
  2001                           
  2002                           ;LCDIO.c: 78:  LCDout(0b0011);
  2003  000826  0E03               	movlw	3
  2004  000828  EC07  F006         	call	_LCDout
  2005                           
  2006                           ;LCDIO.c: 79:  _delay((unsigned long)((200)*(8000000/4000000.0)));
  2007  00082C  0E85               	movlw	133
  2008  00082E                     u1927:
  2009  00082E  2EE8               	decfsz	wreg,f,c
  2010  000830  D7FE               	bra	u1927
  2011  000832  F000               	nop	
  2012                           
  2013                           ;LCDIO.c: 80:  LCDout(0b0011);
  2014  000834  0E03               	movlw	3
  2015  000836  EC07  F006         	call	_LCDout
  2016                           
  2017                           ;LCDIO.c: 81:  _delay((unsigned long)((50)*(8000000/4000000.0)));
  2018  00083A  0E21               	movlw	33
  2019  00083C                     u1937:
  2020  00083C  2EE8               	decfsz	wreg,f,c
  2021  00083E  D7FE               	bra	u1937
  2022  000840  F000               	nop	
  2023                           
  2024                           ;LCDIO.c: 82:  LCDout(0b0010);
  2025  000842  0E02               	movlw	2
  2026  000844  EC07  F006         	call	_LCDout
  2027                           
  2028                           ;LCDIO.c: 83:  _delay((unsigned long)((50)*(8000000/4000000.0)));
  2029  000848  0E21               	movlw	33
  2030  00084A                     u1947:
  2031  00084A  2EE8               	decfsz	wreg,f,c
  2032  00084C  D7FE               	bra	u1947
  2033  00084E  F000               	nop	
  2034                           
  2035                           ;LCDIO.c: 86:  SendLCD(0b00101000,0);
  2036  000850  0E00               	movlw	0
  2037  000852  6E0D               	movwf	SendLCD@type,c
  2038  000854  0E28               	movlw	40
  2039  000856  ECBC  F007         	call	_SendLCD
  2040                           
  2041                           ;LCDIO.c: 87:  _delay((unsigned long)((50)*(8000000/4000000.0)));
  2042  00085A  0E21               	movlw	33
  2043  00085C                     u1957:
  2044  00085C  2EE8               	decfsz	wreg,f,c
  2045  00085E  D7FE               	bra	u1957
  2046  000860  F000               	nop	
  2047                           
  2048                           ;LCDIO.c: 90:  SendLCD(0b00001000,0);
  2049  000862  0E00               	movlw	0
  2050  000864  6E0D               	movwf	SendLCD@type,c
  2051  000866  0E08               	movlw	8
  2052  000868  ECBC  F007         	call	_SendLCD
  2053                           
  2054                           ;LCDIO.c: 91:  _delay((unsigned long)((50)*(8000000/4000000.0)));
  2055  00086C  0E21               	movlw	33
  2056  00086E                     u1967:
  2057  00086E  2EE8               	decfsz	wreg,f,c
  2058  000870  D7FE               	bra	u1967
  2059  000872  F000               	nop	
  2060                           
  2061                           ;LCDIO.c: 94:  SendLCD(0b00000001,0);
  2062  000874  0E00               	movlw	0
  2063  000876  6E0D               	movwf	SendLCD@type,c
  2064  000878  0E01               	movlw	1
  2065  00087A  ECBC  F007         	call	_SendLCD
  2066                           
  2067                           ;LCDIO.c: 95:  _delay((unsigned long)((5)*(8000000/4000.0)));
  2068  00087E  0E0D               	movlw	13
  2069  000880  6E0F               	movwf	??_init_LCD& (0+255),c
  2070  000882  0EFC               	movlw	252
  2071  000884                     u1977:
  2072  000884  2EE8               	decfsz	wreg,f,c
  2073  000886  D7FE               	bra	u1977
  2074  000888  2E0F               	decfsz	??_init_LCD& (0+255),f,c
  2075  00088A  D7FC               	bra	u1977
  2076                           
  2077                           ;LCDIO.c: 98:  SendLCD(0b00000110,0);
  2078  00088C  0E00               	movlw	0
  2079  00088E  6E0D               	movwf	SendLCD@type,c
  2080  000890  0E06               	movlw	6
  2081  000892  ECBC  F007         	call	_SendLCD
  2082                           
  2083                           ;LCDIO.c: 99:  _delay((unsigned long)((50)*(8000000/4000000.0)));
  2084  000896  0E21               	movlw	33
  2085  000898                     u1987:
  2086  000898  2EE8               	decfsz	wreg,f,c
  2087  00089A  D7FE               	bra	u1987
  2088  00089C  F000               	nop	
  2089                           
  2090                           ;LCDIO.c: 102:  SendLCD(0b00001100,0);
  2091  00089E  0E00               	movlw	0
  2092  0008A0  6E0D               	movwf	SendLCD@type,c
  2093  0008A2  0E0C               	movlw	12
  2094  0008A4  ECBC  F007         	call	_SendLCD
  2095                           
  2096                           ;LCDIO.c: 103:  _delay((unsigned long)((50)*(8000000/4000000.0)));
  2097  0008A8  0E21               	movlw	33
  2098  0008AA                     u1997:
  2099  0008AA  2EE8               	decfsz	wreg,f,c
  2100  0008AC  D7FE               	bra	u1997
  2101  0008AE  F000               	nop	
  2102  0008B0  0012               	return		;funcret
  2103  0008B2                     __end_of_init_LCD:
  2104                           	opt callstack 0
  2105                           
  2106 ;; *************** function _initPWM *****************
  2107 ;; Defined at:
  2108 ;;		line 5 in file "dc_motor.c"
  2109 ;; Parameters:    Size  Location     Type
  2110 ;;  PWMperiod       2   10[COMRAM] int 
  2111 ;; Auto vars:     Size  Location     Type
  2112 ;;		None
  2113 ;; Return value:  Size  Location     Type
  2114 ;;                  1    wreg      void 
  2115 ;; Registers used:
  2116 ;;		wreg, status,2
  2117 ;; Tracked objects:
  2118 ;;		On entry : 0/0
  2119 ;;		On exit  : 0/0
  2120 ;;		Unchanged: 0/0
  2121 ;; Data sizes:     COMRAM   BANK0   BANK1   BANK2
  2122 ;;      Params:         2       0       0       0
  2123 ;;      Locals:         0       0       0       0
  2124 ;;      Temps:          0       0       0       0
  2125 ;;      Totals:         2       0       0       0
  2126 ;;Total ram usage:        2 bytes
  2127 ;; Hardware stack levels used:    1
  2128 ;; Hardware stack levels required when called:    3
  2129 ;; This function calls:
  2130 ;;		Nothing
  2131 ;; This function is called by:
  2132 ;;		_setup
  2133 ;; This function uses a non-reentrant model
  2134 ;;
  2135                           
  2136                           	psect	text11
  2137  00103C                     __ptext11:
  2138                           	opt callstack 0
  2139  00103C                     _initPWM:
  2140                           	opt callstack 26
  2141                           
  2142                           ;dc_motor.c: 7:     PTCON0 = 0b00000000;
  2143                           
  2144                           ;incstack = 0
  2145  00103C  0E00               	movlw	0
  2146  00103E  6E7F               	movwf	3967,c	;volatile
  2147                           
  2148                           ;dc_motor.c: 8:     PTCON1 = 0b10000000;
  2149  001040  0E80               	movlw	128
  2150  001042  6E7E               	movwf	3966,c	;volatile
  2151                           
  2152                           ;dc_motor.c: 10:     PWMCON0 = 0b01101111;
  2153  001044  0E6F               	movlw	111
  2154  001046  6E6F               	movwf	3951,c	;volatile
  2155                           
  2156                           ;dc_motor.c: 11:     PWMCON1 = 0x00;
  2157  001048  0E00               	movlw	0
  2158  00104A  6E6E               	movwf	3950,c	;volatile
  2159                           
  2160                           ;dc_motor.c: 13:     PTPERL = (0b11111111 & PWMperiod);
  2161  00104C  C00B  FF7B         	movff	initPWM@PWMperiod,3963	;volatile
  2162                           
  2163                           ;dc_motor.c: 14:     PTPERH = (0b1111111100000000 & PWMperiod) >> 8;
  2164  001050  500C               	movf	initPWM@PWMperiod+1,w,c
  2165  001052  6E7A               	movwf	3962,c	;volatile
  2166  001054  0012               	return		;funcret
  2167  001056                     __end_of_initPWM:
  2168                           	opt callstack 0
  2169                           
  2170 ;; *************** function _scanForBeacon *****************
  2171 ;; Defined at:
  2172 ;;		line 18 in file "subroutines.c"
  2173 ;; Parameters:    Size  Location     Type
  2174 ;;  mL              2   42[COMRAM] PTR struct DC_motor
  2175 ;;		 -> main@motorL(9), 
  2176 ;;  mR              2   44[COMRAM] PTR struct DC_motor
  2177 ;;		 -> main@motorR(9), 
  2178 ;;  speed           2   46[COMRAM] int 
  2179 ;; Auto vars:     Size  Location     Type
  2180 ;;  raw_data        2   50[COMRAM] unsigned int 
  2181 ;;  beacon_locat    1   52[COMRAM] unsigned char 
  2182 ;; Return value:  Size  Location     Type
  2183 ;;                  1    wreg      unsigned char 
  2184 ;; Registers used:
  2185 ;;		wreg, fsr0l, fsr0h, fsr2l, fsr2h, status,2, status,0, tblptrl, tblptrh, tblptru, prodl, prodh, cstack
  2186 ;; Tracked objects:
  2187 ;;		On entry : 0/0
  2188 ;;		On exit  : 0/0
  2189 ;;		Unchanged: 0/0
  2190 ;; Data sizes:     COMRAM   BANK0   BANK1   BANK2
  2191 ;;      Params:         6       0       0       0
  2192 ;;      Locals:         3       0       0       0
  2193 ;;      Temps:          2       0       0       0
  2194 ;;      Totals:        11       0       0       0
  2195 ;;Total ram usage:       11 bytes
  2196 ;; Hardware stack levels used:    1
  2197 ;; Hardware stack levels required when called:    7
  2198 ;; This function calls:
  2199 ;;		_ClearLCD
  2200 ;;		_LCD_String
  2201 ;;		_classify_data
  2202 ;;		_turn
  2203 ;; This function is called by:
  2204 ;;		_main
  2205 ;; This function uses a non-reentrant model
  2206 ;;
  2207                           
  2208                           	psect	text12
  2209  000DA0                     __ptext12:
  2210                           	opt callstack 0
  2211  000DA0                     _scanForBeacon:
  2212                           	opt callstack 23
  2213                           
  2214                           ;subroutines.c: 18: volatile char scanForBeacon(struct DC_motor *mL, struct DC_motor *mR
      +                          , int speed);subroutines.c: 19: {;subroutines.c: 20:     turn(mL,mR,speed);
  2215                           
  2216                           ;incstack = 0
  2217  000DA0  C02B  F022         	movff	scanForBeacon@mL,turn@mL
  2218  000DA4  C02C  F023         	movff	scanForBeacon@mL+1,turn@mL+1
  2219  000DA8  C02D  F024         	movff	scanForBeacon@mR,turn@mR
  2220  000DAC  C02E  F025         	movff	scanForBeacon@mR+1,turn@mR+1
  2221  000DB0  C02F  F026         	movff	scanForBeacon@speed,turn@max_power
  2222  000DB4  C030  F027         	movff	scanForBeacon@speed+1,turn@max_power+1
  2223  000DB8  EC44  F005         	call	_turn	;wreg free
  2224                           
  2225                           ;subroutines.c: 21:     ClearLCD();
  2226  000DBC  EC2B  F008         	call	_ClearLCD	;wreg free
  2227                           
  2228                           ;subroutines.c: 22:     LCD_String("SEARCHING");
  2229  000DC0  0E8B               	movlw	low STR_4
  2230  000DC2  6E0F               	movwf	LCD_String@string,c
  2231  000DC4  0E03               	movlw	high STR_4
  2232  000DC6  6E10               	movwf	LCD_String@string+1,c
  2233  000DC8  EC73  F006         	call	_LCD_String	;wreg free
  2234  000DCC                     l2541:
  2235                           
  2236                           ;subroutines.c: 26:     {;subroutines.c: 28:         unsigned int raw_data = (unsigned i
      +                          nt)((CAP1BUFH << 8) | CAP1BUFL);
  2237  000DCC  5068               	movf	3944,w,c	;volatile
  2238  000DCE  CF69 F031          	movff	3945,??_scanForBeacon	;volatile
  2239  000DD2  6A32               	clrf	(??_scanForBeacon+1)& (0+255),c
  2240  000DD4  C031  F032         	movff	??_scanForBeacon,??_scanForBeacon+1
  2241  000DD8  6A31               	clrf	??_scanForBeacon,c
  2242  000DDA  1031               	iorwf	??_scanForBeacon,w,c
  2243  000DDC  6E33               	movwf	scanForBeacon@raw_data,c
  2244  000DDE  5032               	movf	??_scanForBeacon+1,w,c
  2245  000DE0  6E34               	movwf	scanForBeacon@raw_data+1,c
  2246                           
  2247                           ;subroutines.c: 31:         char beacon_location = classify_data(raw_data);
  2248  000DE2  C033  F00B         	movff	scanForBeacon@raw_data,classify_data@raw_data
  2249  000DE6  C034  F00C         	movff	scanForBeacon@raw_data+1,classify_data@raw_data+1
  2250  000DEA  EC23  F007         	call	_classify_data	;wreg free
  2251  000DEE  6E35               	movwf	scanForBeacon@beacon_location,c
  2252                           
  2253                           ;subroutines.c: 34:         if(beacon_location == 1)
  2254  000DF0  0435               	decf	scanForBeacon@beacon_location,w,c
  2255  000DF2  A4D8               	btfss	status,2,c
  2256  000DF4  D7EB               	goto	l2541
  2257                           
  2258                           ;subroutines.c: 35:         {;subroutines.c: 36:             return 1;
  2259  000DF6  0E01               	movlw	1
  2260  000DF8  0012               	return		;funcret
  2261  000DFA                     __end_of_scanForBeacon:
  2262                           	opt callstack 0
  2263                           
  2264 ;; *************** function _turn *****************
  2265 ;; Defined at:
  2266 ;;		line 53 in file "dc_motor.c"
  2267 ;; Parameters:    Size  Location     Type
  2268 ;;  mL              2   33[COMRAM] PTR struct DC_motor
  2269 ;;		 -> main@motorL(9), 
  2270 ;;  mR              2   35[COMRAM] PTR struct DC_motor
  2271 ;;		 -> main@motorR(9), 
  2272 ;;  max_power       2   37[COMRAM] int 
  2273 ;; Auto vars:     Size  Location     Type
  2274 ;;  i               2   40[COMRAM] int 
  2275 ;; Return value:  Size  Location     Type
  2276 ;;                  1    wreg      void 
  2277 ;; Registers used:
  2278 ;;		wreg, fsr2l, fsr2h, status,2, status,0, prodl, prodh, cstack
  2279 ;; Tracked objects:
  2280 ;;		On entry : 0/0
  2281 ;;		On exit  : 0/0
  2282 ;;		Unchanged: 0/0
  2283 ;; Data sizes:     COMRAM   BANK0   BANK1   BANK2
  2284 ;;      Params:         6       0       0       0
  2285 ;;      Locals:         2       0       0       0
  2286 ;;      Temps:          1       0       0       0
  2287 ;;      Totals:         9       0       0       0
  2288 ;;Total ram usage:        9 bytes
  2289 ;; Hardware stack levels used:    1
  2290 ;; Hardware stack levels required when called:    5
  2291 ;; This function calls:
  2292 ;;		_setMotorPWM
  2293 ;; This function is called by:
  2294 ;;		_scanForBeacon
  2295 ;; This function uses a non-reentrant model
  2296 ;;
  2297                           
  2298                           	psect	text13
  2299  000A88                     __ptext13:
  2300                           	opt callstack 0
  2301  000A88                     _turn:
  2302                           	opt callstack 24
  2303                           
  2304                           ;dc_motor.c: 53: void turn(struct DC_motor *mL, struct DC_motor *mR, int max_power);dc_m
      +                          otor.c: 54: {;dc_motor.c: 56:     mL->direction = 0;
  2305                           
  2306                           ;incstack = 0
  2307  000A88  EE20 F001          	lfsr	2,1
  2308  000A8C  5022               	movf	turn@mL,w,c
  2309  000A8E  26D9               	addwf	fsr2l,f,c
  2310  000A90  5023               	movf	turn@mL+1,w,c
  2311  000A92  22DA               	addwfc	fsr2h,f,c
  2312  000A94  0E00               	movlw	0
  2313  000A96  6EDF               	movwf	indf2,c
  2314                           
  2315                           ;dc_motor.c: 57:     mR->direction = 1;
  2316  000A98  EE20 F001          	lfsr	2,1
  2317  000A9C  5024               	movf	turn@mR,w,c
  2318  000A9E  26D9               	addwf	fsr2l,f,c
  2319  000AA0  5025               	movf	turn@mR+1,w,c
  2320  000AA2  22DA               	addwfc	fsr2h,f,c
  2321  000AA4  0E01               	movlw	1
  2322  000AA6  6EDF               	movwf	indf2,c
  2323                           
  2324                           ;dc_motor.c: 59:     for(int i = 0; i<max_power;i++){
  2325  000AA8  0E00               	movlw	0
  2326  000AAA  6E2A               	movwf	turn@i+1,c
  2327  000AAC  0E00               	movlw	0
  2328  000AAE  6E29               	movwf	turn@i,c
  2329  000AB0  D021               	goto	l2369
  2330  000AB2                     l2359:
  2331                           
  2332                           ;dc_motor.c: 60:         mL->power = i;
  2333  000AB2  C022  FFD9         	movff	turn@mL,fsr2l
  2334  000AB6  C023  FFDA         	movff	turn@mL+1,fsr2h
  2335  000ABA  C029  FFDF         	movff	turn@i,indf2
  2336                           
  2337                           ;dc_motor.c: 61:         mR->power = i;
  2338  000ABE  C024  FFD9         	movff	turn@mR,fsr2l
  2339  000AC2  C025  FFDA         	movff	turn@mR+1,fsr2h
  2340  000AC6  C029  FFDF         	movff	turn@i,indf2
  2341                           
  2342                           ;dc_motor.c: 63:         setMotorPWM(mL);
  2343  000ACA  C022  F019         	movff	turn@mL,setMotorPWM@m
  2344  000ACE  C023  F01A         	movff	turn@mL+1,setMotorPWM@m+1
  2345  000AD2  EC75  F002         	call	_setMotorPWM	;wreg free
  2346                           
  2347                           ;dc_motor.c: 64:         setMotorPWM(mR);
  2348  000AD6  C024  F019         	movff	turn@mR,setMotorPWM@m
  2349  000ADA  C025  F01A         	movff	turn@mR+1,setMotorPWM@m+1
  2350  000ADE  EC75  F002         	call	_setMotorPWM	;wreg free
  2351                           
  2352                           ;dc_motor.c: 65:         _delay((unsigned long)((1)*(8000000/4000.0)));
  2353  000AE2  0E03               	movlw	3
  2354  000AE4  6E28               	movwf	??_turn& (0+255),c
  2355  000AE6  0E98               	movlw	152
  2356  000AE8                     u2007:
  2357  000AE8  2EE8               	decfsz	wreg,f,c
  2358  000AEA  D7FE               	bra	u2007
  2359  000AEC  2E28               	decfsz	??_turn& (0+255),f,c
  2360  000AEE  D7FC               	bra	u2007
  2361                           
  2362                           ;dc_motor.c: 66:     }
  2363  000AF0  4A29               	infsnz	turn@i,f,c
  2364  000AF2  2A2A               	incf	turn@i+1,f,c
  2365  000AF4                     l2369:
  2366  000AF4  5026               	movf	turn@max_power,w,c
  2367  000AF6  5C29               	subwf	turn@i,w,c
  2368  000AF8  502A               	movf	turn@i+1,w,c
  2369  000AFA  0A80               	xorlw	128
  2370  000AFC  6E28               	movwf	??_turn& (0+255),c
  2371  000AFE  5027               	movf	turn@max_power+1,w,c
  2372  000B00  0A80               	xorlw	128
  2373  000B02  5828               	subwfb	??_turn& (0+255),w,c
  2374  000B04  B0D8               	btfsc	status,0,c
  2375  000B06  0012               	return	
  2376  000B08  D7D4               	goto	l2359
  2377  000B0A                     __end_of_turn:
  2378                           	opt callstack 0
  2379                           
  2380 ;; *************** function _classify_data *****************
  2381 ;; Defined at:
  2382 ;;		line 35 in file "signal_processing.c"
  2383 ;; Parameters:    Size  Location     Type
  2384 ;;  raw_data        2   10[COMRAM] unsigned int 
  2385 ;; Auto vars:     Size  Location     Type
  2386 ;;  filtered        2   14[COMRAM] unsigned int 
  2387 ;; Return value:  Size  Location     Type
  2388 ;;                  1    wreg      unsigned char 
  2389 ;; Registers used:
  2390 ;;		wreg, status,2, status,0
  2391 ;; Tracked objects:
  2392 ;;		On entry : 0/0
  2393 ;;		On exit  : 0/0
  2394 ;;		Unchanged: 0/0
  2395 ;; Data sizes:     COMRAM   BANK0   BANK1   BANK2
  2396 ;;      Params:         2       0       0       0
  2397 ;;      Locals:         2       0       0       0
  2398 ;;      Temps:          2       0       0       0
  2399 ;;      Totals:         6       0       0       0
  2400 ;;Total ram usage:        6 bytes
  2401 ;; Hardware stack levels used:    1
  2402 ;; Hardware stack levels required when called:    3
  2403 ;; This function calls:
  2404 ;;		Nothing
  2405 ;; This function is called by:
  2406 ;;		_scanForBeacon
  2407 ;;		_waitForInput
  2408 ;; This function uses a non-reentrant model
  2409 ;;
  2410                           
  2411                           	psect	text14
  2412  000E46                     __ptext14:
  2413                           	opt callstack 0
  2414  000E46                     _classify_data:
  2415                           	opt callstack 26
  2416                           
  2417                           ;signal_processing.c: 35: char classify_data(unsigned int raw_data);signal_processing.c:
      +                           36: {;signal_processing.c: 37:     static unsigned int smoothed;;signal_processing.c: 3
      +                          9:     smoothed = smoothed + ((raw_data - smoothed) >> 2);
  2418                           
  2419                           ;incstack = 0
  2420  000E46  503F               	movf	classify_data@smoothed,w,c
  2421  000E48  5C0B               	subwf	classify_data@raw_data,w,c
  2422  000E4A  6E0D               	movwf	??_classify_data& (0+255),c
  2423  000E4C  5040               	movf	classify_data@smoothed+1,w,c
  2424  000E4E  580C               	subwfb	classify_data@raw_data+1,w,c
  2425  000E50  6E0E               	movwf	(??_classify_data+1)& (0+255),c
  2426  000E52  90D8               	bcf	status,0,c
  2427  000E54  320E               	rrcf	??_classify_data+1,f,c
  2428  000E56  320D               	rrcf	??_classify_data,f,c
  2429  000E58  90D8               	bcf	status,0,c
  2430  000E5A  320E               	rrcf	??_classify_data+1,f,c
  2431  000E5C  320D               	rrcf	??_classify_data,f,c
  2432  000E5E  503F               	movf	classify_data@smoothed,w,c
  2433  000E60  240D               	addwf	??_classify_data,w,c
  2434  000E62  6E3F               	movwf	classify_data@smoothed,c
  2435  000E64  5040               	movf	classify_data@smoothed+1,w,c
  2436  000E66  200E               	addwfc	??_classify_data+1,w,c
  2437  000E68  6E40               	movwf	classify_data@smoothed+1,c
  2438                           
  2439                           ;signal_processing.c: 40:     unsigned int filtered = raw_data - smoothed;
  2440  000E6A  503F               	movf	classify_data@smoothed,w,c
  2441  000E6C  5C0B               	subwf	classify_data@raw_data,w,c
  2442  000E6E  6E0F               	movwf	classify_data@filtered,c
  2443  000E70  5040               	movf	classify_data@smoothed+1,w,c
  2444  000E72  580C               	subwfb	classify_data@raw_data+1,w,c
  2445  000E74  6E10               	movwf	classify_data@filtered+1,c
  2446                           
  2447                           ;signal_processing.c: 43:     if(filtered >= 100)
  2448  000E76  5010               	movf	classify_data@filtered+1,w,c
  2449  000E78  E104               	bnz	u1700
  2450  000E7A  0E64               	movlw	100
  2451  000E7C  5C0F               	subwf	classify_data@filtered,w,c
  2452  000E7E  A0D8               	btfss	status,0,c
  2453  000E80  D002               	goto	l2457
  2454  000E82                     u1700:
  2455                           
  2456                           ;signal_processing.c: 44:     {;signal_processing.c: 45:         return 1;
  2457  000E82  0E01               	movlw	1
  2458  000E84  0012               	return	
  2459  000E86                     l2457:
  2460                           
  2461                           ;signal_processing.c: 48:     {;signal_processing.c: 49:         return 0;
  2462  000E86  0E00               	movlw	0
  2463  000E88  0012               	return		;funcret
  2464  000E8A                     __end_of_classify_data:
  2465                           	opt callstack 0
  2466                           
  2467 ;; *************** function _returnHome *****************
  2468 ;; Defined at:
  2469 ;;		line 69 in file "subroutines.c"
  2470 ;; Parameters:    Size  Location     Type
  2471 ;;  mL              2   42[COMRAM] PTR struct DC_motor
  2472 ;;		 -> main@motorL(9), 
  2473 ;;  mR              2   44[COMRAM] PTR struct DC_motor
  2474 ;;		 -> main@motorR(9), 
  2475 ;;  speed           2   46[COMRAM] int 
  2476 ;;  time            2   48[COMRAM] PTR volatile unsigned lo
  2477 ;;		 -> movement_time(4), 
  2478 ;; Auto vars:     Size  Location     Type
  2479 ;;		None
  2480 ;; Return value:  Size  Location     Type
  2481 ;;                  1    wreg      unsigned char 
  2482 ;; Registers used:
  2483 ;;		wreg, fsr0l, fsr0h, fsr2l, fsr2h, status,2, status,0, tblptrl, tblptrh, tblptru, prodl, prodh, cstack
  2484 ;; Tracked objects:
  2485 ;;		On entry : 0/0
  2486 ;;		On exit  : 0/0
  2487 ;;		Unchanged: 0/0
  2488 ;; Data sizes:     COMRAM   BANK0   BANK1   BANK2
  2489 ;;      Params:         8       0       0       0
  2490 ;;      Locals:         0       0       0       0
  2491 ;;      Temps:          4       0       0       0
  2492 ;;      Totals:        12       0       0       0
  2493 ;;Total ram usage:       12 bytes
  2494 ;; Hardware stack levels used:    1
  2495 ;; Hardware stack levels required when called:    7
  2496 ;; This function calls:
  2497 ;;		_ClearLCD
  2498 ;;		_LCD_String
  2499 ;;		_moveBackward
  2500 ;; This function is called by:
  2501 ;;		_main
  2502 ;; This function uses a non-reentrant model
  2503 ;;
  2504                           
  2505                           	psect	text15
  2506  000E8A                     __ptext15:
  2507                           	opt callstack 0
  2508  000E8A                     _returnHome:
  2509                           	opt callstack 23
  2510                           
  2511                           ;subroutines.c: 69: volatile char returnHome(struct DC_motor *mL, struct DC_motor *mR, i
      +                          nt speed,;subroutines.c: 70:                             volatile unsigned long *time);s
      +                          ubroutines.c: 71: {;subroutines.c: 72:     moveBackward(mL,mR,speed);
  2512                           
  2513                           ;incstack = 0
  2514  000E8A  C02B  F022         	movff	returnHome@mL,moveBackward@mL
  2515  000E8E  C02C  F023         	movff	returnHome@mL+1,moveBackward@mL+1
  2516  000E92  C02D  F024         	movff	returnHome@mR,moveBackward@mR
  2517  000E96  C02E  F025         	movff	returnHome@mR+1,moveBackward@mR+1
  2518  000E9A  C02F  F026         	movff	returnHome@speed,moveBackward@max_power
  2519  000E9E  C030  F027         	movff	returnHome@speed+1,moveBackward@max_power+1
  2520  000EA2  EC85  F005         	call	_moveBackward	;wreg free
  2521                           
  2522                           ;subroutines.c: 74:     ClearLCD();
  2523  000EA6  EC2B  F008         	call	_ClearLCD	;wreg free
  2524                           
  2525                           ;subroutines.c: 75:     LCD_String("RETURNING HOME");
  2526  000EAA  0E60               	movlw	low STR_6
  2527  000EAC  6E0F               	movwf	LCD_String@string,c
  2528  000EAE  0E03               	movlw	high STR_6
  2529  000EB0  6E10               	movwf	LCD_String@string+1,c
  2530  000EB2  EC73  F006         	call	_LCD_String	;wreg free
  2531  000EB6                     l2579:
  2532  000EB6  C031  FFD9         	movff	returnHome@time,fsr2l
  2533  000EBA  C032  FFDA         	movff	returnHome@time+1,fsr2h
  2534  000EBE  50DE               	movf	postinc2,w,c
  2535  000EC0  10DE               	iorwf	postinc2,w,c
  2536  000EC2  10DE               	iorwf	postinc2,w,c
  2537  000EC4  10DE               	iorwf	postinc2,w,c
  2538  000EC6  A4D8               	btfss	status,2,c
  2539  000EC8  D7F6               	goto	l2579
  2540                           
  2541                           ;subroutines.c: 77:     return 3;
  2542  000ECA  0E03               	movlw	3
  2543  000ECC  0012               	return		;funcret
  2544  000ECE                     __end_of_returnHome:
  2545                           	opt callstack 0
  2546                           
  2547 ;; *************** function _moveBackward *****************
  2548 ;; Defined at:
  2549 ;;		line 85 in file "dc_motor.c"
  2550 ;; Parameters:    Size  Location     Type
  2551 ;;  mL              2   33[COMRAM] PTR struct DC_motor
  2552 ;;		 -> main@motorL(9), 
  2553 ;;  mR              2   35[COMRAM] PTR struct DC_motor
  2554 ;;		 -> main@motorR(9), 
  2555 ;;  max_power       2   37[COMRAM] int 
  2556 ;; Auto vars:     Size  Location     Type
  2557 ;;  i               2   40[COMRAM] int 
  2558 ;; Return value:  Size  Location     Type
  2559 ;;                  1    wreg      void 
  2560 ;; Registers used:
  2561 ;;		wreg, fsr2l, fsr2h, status,2, status,0, prodl, prodh, cstack
  2562 ;; Tracked objects:
  2563 ;;		On entry : 0/0
  2564 ;;		On exit  : 0/0
  2565 ;;		Unchanged: 0/0
  2566 ;; Data sizes:     COMRAM   BANK0   BANK1   BANK2
  2567 ;;      Params:         6       0       0       0
  2568 ;;      Locals:         2       0       0       0
  2569 ;;      Temps:          1       0       0       0
  2570 ;;      Totals:         9       0       0       0
  2571 ;;Total ram usage:        9 bytes
  2572 ;; Hardware stack levels used:    1
  2573 ;; Hardware stack levels required when called:    5
  2574 ;; This function calls:
  2575 ;;		_setMotorPWM
  2576 ;; This function is called by:
  2577 ;;		_returnHome
  2578 ;; This function uses a non-reentrant model
  2579 ;;
  2580                           
  2581                           	psect	text16
  2582  000B0A                     __ptext16:
  2583                           	opt callstack 0
  2584  000B0A                     _moveBackward:
  2585                           	opt callstack 24
  2586                           
  2587                           ;dc_motor.c: 85: void moveBackward(struct DC_motor *mL, struct DC_motor *mR, int max_pow
      +                          er);dc_motor.c: 86: {;dc_motor.c: 87:     mL->direction = 0;
  2588                           
  2589                           ;incstack = 0
  2590  000B0A  EE20 F001          	lfsr	2,1
  2591  000B0E  5022               	movf	moveBackward@mL,w,c
  2592  000B10  26D9               	addwf	fsr2l,f,c
  2593  000B12  5023               	movf	moveBackward@mL+1,w,c
  2594  000B14  22DA               	addwfc	fsr2h,f,c
  2595  000B16  0E00               	movlw	0
  2596  000B18  6EDF               	movwf	indf2,c
  2597                           
  2598                           ;dc_motor.c: 88:     mR->direction = 0;
  2599  000B1A  EE20 F001          	lfsr	2,1
  2600  000B1E  5024               	movf	moveBackward@mR,w,c
  2601  000B20  26D9               	addwf	fsr2l,f,c
  2602  000B22  5025               	movf	moveBackward@mR+1,w,c
  2603  000B24  22DA               	addwfc	fsr2h,f,c
  2604  000B26  0E00               	movlw	0
  2605  000B28  6EDF               	movwf	indf2,c
  2606                           
  2607                           ;dc_motor.c: 89:     for(int i = 0; i < max_power; i++)
  2608  000B2A  0E00               	movlw	0
  2609  000B2C  6E2A               	movwf	moveBackward@i+1,c
  2610  000B2E  0E00               	movlw	0
  2611  000B30  6E29               	movwf	moveBackward@i,c
  2612  000B32  D021               	goto	l2401
  2613  000B34                     l2391:
  2614                           
  2615                           ;dc_motor.c: 90:     {;dc_motor.c: 91:         mL->power = i;
  2616  000B34  C022  FFD9         	movff	moveBackward@mL,fsr2l
  2617  000B38  C023  FFDA         	movff	moveBackward@mL+1,fsr2h
  2618  000B3C  C029  FFDF         	movff	moveBackward@i,indf2
  2619                           
  2620                           ;dc_motor.c: 92:         mR->power = i;
  2621  000B40  C024  FFD9         	movff	moveBackward@mR,fsr2l
  2622  000B44  C025  FFDA         	movff	moveBackward@mR+1,fsr2h
  2623  000B48  C029  FFDF         	movff	moveBackward@i,indf2
  2624                           
  2625                           ;dc_motor.c: 93:         setMotorPWM(mL);
  2626  000B4C  C022  F019         	movff	moveBackward@mL,setMotorPWM@m
  2627  000B50  C023  F01A         	movff	moveBackward@mL+1,setMotorPWM@m+1
  2628  000B54  EC75  F002         	call	_setMotorPWM	;wreg free
  2629                           
  2630                           ;dc_motor.c: 94:         setMotorPWM(mR);
  2631  000B58  C024  F019         	movff	moveBackward@mR,setMotorPWM@m
  2632  000B5C  C025  F01A         	movff	moveBackward@mR+1,setMotorPWM@m+1
  2633  000B60  EC75  F002         	call	_setMotorPWM	;wreg free
  2634                           
  2635                           ;dc_motor.c: 95:         _delay((unsigned long)((1)*(8000000/4000.0)));
  2636  000B64  0E03               	movlw	3
  2637  000B66  6E28               	movwf	??_moveBackward& (0+255),c
  2638  000B68  0E98               	movlw	152
  2639  000B6A                     u2017:
  2640  000B6A  2EE8               	decfsz	wreg,f,c
  2641  000B6C  D7FE               	bra	u2017
  2642  000B6E  2E28               	decfsz	??_moveBackward& (0+255),f,c
  2643  000B70  D7FC               	bra	u2017
  2644                           
  2645                           ;dc_motor.c: 96:     }
  2646  000B72  4A29               	infsnz	moveBackward@i,f,c
  2647  000B74  2A2A               	incf	moveBackward@i+1,f,c
  2648  000B76                     l2401:
  2649  000B76  5026               	movf	moveBackward@max_power,w,c
  2650  000B78  5C29               	subwf	moveBackward@i,w,c
  2651  000B7A  502A               	movf	moveBackward@i+1,w,c
  2652  000B7C  0A80               	xorlw	128
  2653  000B7E  6E28               	movwf	??_moveBackward& (0+255),c
  2654  000B80  5027               	movf	moveBackward@max_power+1,w,c
  2655  000B82  0A80               	xorlw	128
  2656  000B84  5828               	subwfb	??_moveBackward& (0+255),w,c
  2657  000B86  B0D8               	btfsc	status,0,c
  2658  000B88  0012               	return	
  2659  000B8A  D7D4               	goto	l2391
  2660  000B8C                     __end_of_moveBackward:
  2661                           	opt callstack 0
  2662                           
  2663 ;; *************** function _moveToBeacon *****************
  2664 ;; Defined at:
  2665 ;;		line 43 in file "subroutines.c"
  2666 ;; Parameters:    Size  Location     Type
  2667 ;;  mL              2   42[COMRAM] PTR struct DC_motor
  2668 ;;		 -> main@motorL(9), 
  2669 ;;  mR              2   44[COMRAM] PTR struct DC_motor
  2670 ;;		 -> main@motorR(9), 
  2671 ;;  speed           2   46[COMRAM] int 
  2672 ;;  time            2   48[COMRAM] PTR volatile unsigned lo
  2673 ;;		 -> movement_time(4), 
  2674 ;;  exit_flag       2   50[COMRAM] PTR volatile unsigned ch
  2675 ;;		 -> NULL(0), RFID_flag(1), 
  2676 ;; Auto vars:     Size  Location     Type
  2677 ;;		None
  2678 ;; Return value:  Size  Location     Type
  2679 ;;                  1    wreg      unsigned char 
  2680 ;; Registers used:
  2681 ;;		wreg, fsr0l, fsr0h, fsr2l, fsr2h, status,2, status,0, tblptrl, tblptrh, tblptru, prodl, prodh, cstack
  2682 ;; Tracked objects:
  2683 ;;		On entry : 0/0
  2684 ;;		On exit  : 0/0
  2685 ;;		Unchanged: 0/0
  2686 ;; Data sizes:     COMRAM   BANK0   BANK1   BANK2
  2687 ;;      Params:        10       0       0       0
  2688 ;;      Locals:         0       0       0       0
  2689 ;;      Temps:          4       0       0       0
  2690 ;;      Totals:        14       0       0       0
  2691 ;;Total ram usage:       14 bytes
  2692 ;; Hardware stack levels used:    1
  2693 ;; Hardware stack levels required when called:    7
  2694 ;; This function calls:
  2695 ;;		_ClearLCD
  2696 ;;		_LCD_String
  2697 ;;		_moveForward
  2698 ;; This function is called by:
  2699 ;;		_main
  2700 ;; This function uses a non-reentrant model
  2701 ;;
  2702                           
  2703                           	psect	text17
  2704  000C86                     __ptext17:
  2705                           	opt callstack 0
  2706  000C86                     _moveToBeacon:
  2707                           	opt callstack 23
  2708                           
  2709                           ;subroutines.c: 43: volatile char moveToBeacon(struct DC_motor *mL, struct DC_motor *mR,
      +                           int speed,;subroutines.c: 44:                         volatile unsigned long *time, vol
      +                          atile char *exit_flag);subroutines.c: 45: {;subroutines.c: 46:     moveForward(mL,mR,spe
      +                          ed);
  2710                           
  2711                           ;incstack = 0
  2712  000C86  C02B  F022         	movff	moveToBeacon@mL,moveForward@mL
  2713  000C8A  C02C  F023         	movff	moveToBeacon@mL+1,moveForward@mL+1
  2714  000C8E  C02D  F024         	movff	moveToBeacon@mR,moveForward@mR
  2715  000C92  C02E  F025         	movff	moveToBeacon@mR+1,moveForward@mR+1
  2716  000C96  C02F  F026         	movff	moveToBeacon@speed,moveForward@max_power
  2717  000C9A  C030  F027         	movff	moveToBeacon@speed+1,moveForward@max_power+1
  2718  000C9E  ECC6  F005         	call	_moveForward	;wreg free
  2719                           
  2720                           ;subroutines.c: 47:     ClearLCD();
  2721  000CA2  EC2B  F008         	call	_ClearLCD	;wreg free
  2722                           
  2723                           ;subroutines.c: 48:     LCD_String("MOVING TO BOMB");
  2724  000CA6  0E51               	movlw	low STR_5
  2725  000CA8  6E0F               	movwf	LCD_String@string,c
  2726  000CAA  0E03               	movlw	high STR_5
  2727  000CAC  6E10               	movwf	LCD_String@string+1,c
  2728  000CAE  EC73  F006         	call	_LCD_String	;wreg free
  2729  000CB2                     l2557:
  2730                           
  2731                           ;subroutines.c: 52:           {;subroutines.c: 55:               if(*exit_flag == 1)
  2732  000CB2  C033  FFD9         	movff	moveToBeacon@exit_flag,fsr2l
  2733  000CB6  C034  FFDA         	movff	moveToBeacon@exit_flag+1,fsr2h
  2734  000CBA  04DE               	decf	postinc2,w,c
  2735  000CBC  A4D8               	btfss	status,2,c
  2736  000CBE  D002               	goto	l2567
  2737  000CC0                     u1760:
  2738  000CC0                     l2561:
  2739                           
  2740                           ;subroutines.c: 58:                   return 2;
  2741  000CC0  0E02               	movlw	2
  2742  000CC2  0012               	return	
  2743  000CC4                     l2567:
  2744  000CC4  C031  FFD9         	movff	moveToBeacon@time,fsr2l
  2745  000CC8  C032  FFDA         	movff	moveToBeacon@time+1,fsr2h
  2746  000CCC  0E03               	movlw	3
  2747  000CCE  50DB               	movf	plusw2,w,c
  2748  000CD0  E1F7               	bnz	l2561
  2749  000CD2  0E02               	movlw	2
  2750  000CD4  50DB               	movf	plusw2,w,c
  2751  000CD6  E1F4               	bnz	l2561
  2752  000CD8  0E31               	movlw	49
  2753  000CDA  5CDE               	subwf	postinc2,w,c
  2754  000CDC  0E01               	movlw	1
  2755  000CDE  58DE               	subwfb	postinc2,w,c
  2756  000CE0  B0D8               	btfsc	status,0,c
  2757  000CE2  D7EE               	goto	u1760
  2758  000CE4  D7E6               	goto	l2557
  2759  000CE6                     __end_of_moveToBeacon:
  2760                           	opt callstack 0
  2761                           
  2762 ;; *************** function _moveForward *****************
  2763 ;; Defined at:
  2764 ;;		line 70 in file "dc_motor.c"
  2765 ;; Parameters:    Size  Location     Type
  2766 ;;  mL              2   33[COMRAM] PTR struct DC_motor
  2767 ;;		 -> main@motorL(9), 
  2768 ;;  mR              2   35[COMRAM] PTR struct DC_motor
  2769 ;;		 -> main@motorR(9), 
  2770 ;;  max_power       2   37[COMRAM] int 
  2771 ;; Auto vars:     Size  Location     Type
  2772 ;;  i               2   40[COMRAM] int 
  2773 ;; Return value:  Size  Location     Type
  2774 ;;                  1    wreg      void 
  2775 ;; Registers used:
  2776 ;;		wreg, fsr2l, fsr2h, status,2, status,0, prodl, prodh, cstack
  2777 ;; Tracked objects:
  2778 ;;		On entry : 0/0
  2779 ;;		On exit  : 0/0
  2780 ;;		Unchanged: 0/0
  2781 ;; Data sizes:     COMRAM   BANK0   BANK1   BANK2
  2782 ;;      Params:         6       0       0       0
  2783 ;;      Locals:         2       0       0       0
  2784 ;;      Temps:          1       0       0       0
  2785 ;;      Totals:         9       0       0       0
  2786 ;;Total ram usage:        9 bytes
  2787 ;; Hardware stack levels used:    1
  2788 ;; Hardware stack levels required when called:    5
  2789 ;; This function calls:
  2790 ;;		_setMotorPWM
  2791 ;; This function is called by:
  2792 ;;		_moveToBeacon
  2793 ;; This function uses a non-reentrant model
  2794 ;;
  2795                           
  2796                           	psect	text18
  2797  000B8C                     __ptext18:
  2798                           	opt callstack 0
  2799  000B8C                     _moveForward:
  2800                           	opt callstack 24
  2801                           
  2802                           ;dc_motor.c: 70: void moveForward(struct DC_motor *mL, struct DC_motor *mR, int max_powe
      +                          r);dc_motor.c: 71: {;dc_motor.c: 72:     mL->direction = 1;
  2803                           
  2804                           ;incstack = 0
  2805  000B8C  EE20 F001          	lfsr	2,1
  2806  000B90  5022               	movf	moveForward@mL,w,c
  2807  000B92  26D9               	addwf	fsr2l,f,c
  2808  000B94  5023               	movf	moveForward@mL+1,w,c
  2809  000B96  22DA               	addwfc	fsr2h,f,c
  2810  000B98  0E01               	movlw	1
  2811  000B9A  6EDF               	movwf	indf2,c
  2812                           
  2813                           ;dc_motor.c: 73:     mR->direction = 1;
  2814  000B9C  EE20 F001          	lfsr	2,1
  2815  000BA0  5024               	movf	moveForward@mR,w,c
  2816  000BA2  26D9               	addwf	fsr2l,f,c
  2817  000BA4  5025               	movf	moveForward@mR+1,w,c
  2818  000BA6  22DA               	addwfc	fsr2h,f,c
  2819  000BA8  0E01               	movlw	1
  2820  000BAA  6EDF               	movwf	indf2,c
  2821                           
  2822                           ;dc_motor.c: 74:     for(int i = 0; i < max_power; i++)
  2823  000BAC  0E00               	movlw	0
  2824  000BAE  6E2A               	movwf	moveForward@i+1,c
  2825  000BB0  0E00               	movlw	0
  2826  000BB2  6E29               	movwf	moveForward@i,c
  2827  000BB4  D021               	goto	l2385
  2828  000BB6                     l2375:
  2829                           
  2830                           ;dc_motor.c: 75:     {;dc_motor.c: 76:         mL->power = i;
  2831  000BB6  C022  FFD9         	movff	moveForward@mL,fsr2l
  2832  000BBA  C023  FFDA         	movff	moveForward@mL+1,fsr2h
  2833  000BBE  C029  FFDF         	movff	moveForward@i,indf2
  2834                           
  2835                           ;dc_motor.c: 77:         mR->power = i;
  2836  000BC2  C024  FFD9         	movff	moveForward@mR,fsr2l
  2837  000BC6  C025  FFDA         	movff	moveForward@mR+1,fsr2h
  2838  000BCA  C029  FFDF         	movff	moveForward@i,indf2
  2839                           
  2840                           ;dc_motor.c: 78:         setMotorPWM(mL);
  2841  000BCE  C022  F019         	movff	moveForward@mL,setMotorPWM@m
  2842  000BD2  C023  F01A         	movff	moveForward@mL+1,setMotorPWM@m+1
  2843  000BD6  EC75  F002         	call	_setMotorPWM	;wreg free
  2844                           
  2845                           ;dc_motor.c: 79:         setMotorPWM(mR);
  2846  000BDA  C024  F019         	movff	moveForward@mR,setMotorPWM@m
  2847  000BDE  C025  F01A         	movff	moveForward@mR+1,setMotorPWM@m+1
  2848  000BE2  EC75  F002         	call	_setMotorPWM	;wreg free
  2849                           
  2850                           ;dc_motor.c: 80:         _delay((unsigned long)((1)*(8000000/4000.0)));
  2851  000BE6  0E03               	movlw	3
  2852  000BE8  6E28               	movwf	??_moveForward& (0+255),c
  2853  000BEA  0E98               	movlw	152
  2854  000BEC                     u2027:
  2855  000BEC  2EE8               	decfsz	wreg,f,c
  2856  000BEE  D7FE               	bra	u2027
  2857  000BF0  2E28               	decfsz	??_moveForward& (0+255),f,c
  2858  000BF2  D7FC               	bra	u2027
  2859                           
  2860                           ;dc_motor.c: 81:     }
  2861  000BF4  4A29               	infsnz	moveForward@i,f,c
  2862  000BF6  2A2A               	incf	moveForward@i+1,f,c
  2863  000BF8                     l2385:
  2864  000BF8  5026               	movf	moveForward@max_power,w,c
  2865  000BFA  5C29               	subwf	moveForward@i,w,c
  2866  000BFC  502A               	movf	moveForward@i+1,w,c
  2867  000BFE  0A80               	xorlw	128
  2868  000C00  6E28               	movwf	??_moveForward& (0+255),c
  2869  000C02  5027               	movf	moveForward@max_power+1,w,c
  2870  000C04  0A80               	xorlw	128
  2871  000C06  5828               	subwfb	??_moveForward& (0+255),w,c
  2872  000C08  B0D8               	btfsc	status,0,c
  2873  000C0A  0012               	return	
  2874  000C0C  D7D4               	goto	l2375
  2875  000C0E                     __end_of_moveForward:
  2876                           	opt callstack 0
  2877                           
  2878 ;; *************** function _LCD_String *****************
  2879 ;; Defined at:
  2880 ;;		line 119 in file "LCDIO.c"
  2881 ;; Parameters:    Size  Location     Type
  2882 ;;  string          2   14[COMRAM] PTR unsigned char 
  2883 ;;		 -> STR_12(16), STR_11(16), STR_10(13), debug@buf2(16), 
  2884 ;;		 -> debug@buf(16), STR_7(16), STR_6(15), STR_5(15), 
  2885 ;;		 -> STR_4(10), STR_3(16), STR_2(16), STR_1(15), 
  2886 ;; Auto vars:     Size  Location     Type
  2887 ;;		None
  2888 ;; Return value:  Size  Location     Type
  2889 ;;                  1    wreg      void 
  2890 ;; Registers used:
  2891 ;;		wreg, fsr0l, fsr0h, status,2, status,0, tblptrl, tblptrh, tblptru, cstack
  2892 ;; Tracked objects:
  2893 ;;		On entry : 0/0
  2894 ;;		On exit  : 0/0
  2895 ;;		Unchanged: 0/0
  2896 ;; Data sizes:     COMRAM   BANK0   BANK1   BANK2
  2897 ;;      Params:         2       0       0       0
  2898 ;;      Locals:         0       0       0       0
  2899 ;;      Temps:          0       0       0       0
  2900 ;;      Totals:         2       0       0       0
  2901 ;;Total ram usage:        2 bytes
  2902 ;; Hardware stack levels used:    1
  2903 ;; Hardware stack levels required when called:    6
  2904 ;; This function calls:
  2905 ;;		_SendLCD
  2906 ;; This function is called by:
  2907 ;;		_main
  2908 ;;		_check_RFID
  2909 ;;		_scanForBeacon
  2910 ;;		_moveToBeacon
  2911 ;;		_returnHome
  2912 ;;		_stopAndDisplay
  2913 ;;		_waitForInput
  2914 ;;		_debug
  2915 ;; This function uses a non-reentrant model
  2916 ;;
  2917                           
  2918                           	psect	text19
  2919  000CE6                     __ptext19:
  2920                           	opt callstack 0
  2921  000CE6                     _LCD_String:
  2922                           	opt callstack 23
  2923                           
  2924                           ;LCDIO.c: 121: while(*string != 0){
  2925                           
  2926                           ;incstack = 0
  2927  000CE6  D01A               	goto	l2257
  2928  000CE8                     l2251:
  2929                           
  2930                           ;LCDIO.c: 124: SendLCD(*string++,1);
  2931  000CE8  0E01               	movlw	1
  2932  000CEA  6E0D               	movwf	SendLCD@type,c
  2933  000CEC  C00F  FFF6         	movff	LCD_String@string,tblptrl
  2934  000CF0  C010  FFF7         	movff	LCD_String@string+1,tblptrh
  2935  000CF4  6AF8               	clrf	tblptru,c
  2936  000CF6  0E02               	movlw	(high __ramtop+-1)
  2937  000CF8  64F7               	cpfsgt	tblptrh,c
  2938  000CFA  D003               	bra	u1367
  2939  000CFC  0008               	tblrd		*
  2940  000CFE  50F5               	movf	tablat,w,c
  2941  000D00  D005               	bra	u1360
  2942  000D02                     u1367:
  2943  000D02  CFF6 FFE9          	movff	tblptrl,fsr0l
  2944  000D06  CFF7 FFEA          	movff	tblptrh,fsr0h
  2945  000D0A  50EF               	movf	indf0,w,c
  2946  000D0C                     u1360:
  2947  000D0C  ECBC  F007         	call	_SendLCD
  2948  000D10  4A0F               	infsnz	LCD_String@string,f,c
  2949  000D12  2A10               	incf	LCD_String@string+1,f,c
  2950                           
  2951                           ;LCDIO.c: 125:  _delay((unsigned long)((50)*(8000000/4000000.0)));
  2952  000D14  0E21               	movlw	33
  2953  000D16                     u2037:
  2954  000D16  2EE8               	decfsz	wreg,f,c
  2955  000D18  D7FE               	bra	u2037
  2956  000D1A  F000               	nop	
  2957  000D1C                     l2257:
  2958                           
  2959                           ;LCDIO.c: 121: while(*string != 0){
  2960  000D1C  C00F  FFF6         	movff	LCD_String@string,tblptrl
  2961  000D20  C010  FFF7         	movff	LCD_String@string+1,tblptrh
  2962  000D24  6AF8               	clrf	tblptru,c
  2963  000D26  0E02               	movlw	(high __ramtop+-1)
  2964  000D28  64F7               	cpfsgt	tblptrh,c
  2965  000D2A  D003               	bra	u1377
  2966  000D2C  0008               	tblrd		*
  2967  000D2E  50F5               	movf	tablat,w,c
  2968  000D30  D005               	bra	u1370
  2969  000D32                     u1377:
  2970  000D32  CFF6 FFE9          	movff	tblptrl,fsr0l
  2971  000D36  CFF7 FFEA          	movff	tblptrh,fsr0h
  2972  000D3A  50EF               	movf	indf0,w,c
  2973  000D3C                     u1370:
  2974  000D3C  0900               	iorlw	0
  2975  000D3E  B4D8               	btfsc	status,2,c
  2976  000D40  0012               	return	
  2977  000D42  D7D2               	goto	l2251
  2978  000D44                     __end_of_LCD_String:
  2979                           	opt callstack 0
  2980                           
  2981 ;; *************** function _ClearLCD *****************
  2982 ;; Defined at:
  2983 ;;		line 131 in file "LCDIO.c"
  2984 ;; Parameters:    Size  Location     Type
  2985 ;;		None
  2986 ;; Auto vars:     Size  Location     Type
  2987 ;;		None
  2988 ;; Return value:  Size  Location     Type
  2989 ;;                  1    wreg      void 
  2990 ;; Registers used:
  2991 ;;		wreg, status,2, status,0, cstack
  2992 ;; Tracked objects:
  2993 ;;		On entry : 0/0
  2994 ;;		On exit  : 0/0
  2995 ;;		Unchanged: 0/0
  2996 ;; Data sizes:     COMRAM   BANK0   BANK1   BANK2
  2997 ;;      Params:         0       0       0       0
  2998 ;;      Locals:         0       0       0       0
  2999 ;;      Temps:          1       0       0       0
  3000 ;;      Totals:         1       0       0       0
  3001 ;;Total ram usage:        1 bytes
  3002 ;; Hardware stack levels used:    1
  3003 ;; Hardware stack levels required when called:    6
  3004 ;; This function calls:
  3005 ;;		_SendLCD
  3006 ;; This function is called by:
  3007 ;;		_display_RFID
  3008 ;;		_scanForBeacon
  3009 ;;		_moveToBeacon
  3010 ;;		_returnHome
  3011 ;;		_stopAndDisplay
  3012 ;;		_waitForInput
  3013 ;;		_debug
  3014 ;; This function uses a non-reentrant model
  3015 ;;
  3016                           
  3017                           	psect	text20
  3018  001056                     __ptext20:
  3019                           	opt callstack 0
  3020  001056                     _ClearLCD:
  3021                           	opt callstack 23
  3022                           
  3023                           ;LCDIO.c: 132:     SendLCD(0b00000001,0);
  3024                           
  3025                           ;incstack = 0
  3026  001056  0E00               	movlw	0
  3027  001058  6E0D               	movwf	SendLCD@type,c
  3028  00105A  0E01               	movlw	1
  3029  00105C  ECBC  F007         	call	_SendLCD
  3030                           
  3031                           ;LCDIO.c: 133:     _delay((unsigned long)((5)*(8000000/4000.0)));
  3032  001060  0E0D               	movlw	13
  3033  001062  6E0F               	movwf	??_ClearLCD& (0+255),c
  3034  001064  0EFC               	movlw	252
  3035  001066                     u2047:
  3036  001066  2EE8               	decfsz	wreg,f,c
  3037  001068  D7FE               	bra	u2047
  3038  00106A  2E0F               	decfsz	??_ClearLCD& (0+255),f,c
  3039  00106C  D7FC               	bra	u2047
  3040  00106E  0012               	return		;funcret
  3041  001070                     __end_of_ClearLCD:
  3042                           	opt callstack 0
  3043                           
  3044 ;; *************** function _SendLCD *****************
  3045 ;; Defined at:
  3046 ;;		line 44 in file "LCDIO.c"
  3047 ;; Parameters:    Size  Location     Type
  3048 ;;  Byte            1    wreg     unsigned char 
  3049 ;;  type            1   12[COMRAM] unsigned char 
  3050 ;; Auto vars:     Size  Location     Type
  3051 ;;  Byte            1   13[COMRAM] unsigned char 
  3052 ;; Return value:  Size  Location     Type
  3053 ;;                  1    wreg      void 
  3054 ;; Registers used:
  3055 ;;		wreg, status,2, status,0, cstack
  3056 ;; Tracked objects:
  3057 ;;		On entry : 0/0
  3058 ;;		On exit  : 0/0
  3059 ;;		Unchanged: 0/0
  3060 ;; Data sizes:     COMRAM   BANK0   BANK1   BANK2
  3061 ;;      Params:         1       0       0       0
  3062 ;;      Locals:         1       0       0       0
  3063 ;;      Temps:          0       0       0       0
  3064 ;;      Totals:         2       0       0       0
  3065 ;;Total ram usage:        2 bytes
  3066 ;; Hardware stack levels used:    1
  3067 ;; Hardware stack levels required when called:    5
  3068 ;; This function calls:
  3069 ;;		_LCDout
  3070 ;; This function is called by:
  3071 ;;		_init_LCD
  3072 ;;		_SetLine
  3073 ;;		_LCD_String
  3074 ;;		_ClearLCD
  3075 ;;		_display_RFID
  3076 ;; This function uses a non-reentrant model
  3077 ;;
  3078                           
  3079                           	psect	text21
  3080  000F78                     __ptext21:
  3081                           	opt callstack 0
  3082  000F78                     _SendLCD:
  3083                           	opt callstack 23
  3084                           
  3085                           ;incstack = 0
  3086                           ;SendLCD@Byte stored from wreg
  3087  000F78  6E0E               	movwf	SendLCD@Byte,c
  3088                           
  3089                           ;LCDIO.c: 47:  LATAbits.LATA7 = type;
  3090  000F7A  B00D               	btfsc	SendLCD@type,0,c
  3091  000F7C  D002               	bra	u1295
  3092  000F7E  9E89               	bcf	3977,7,c	;volatile
  3093  000F80  D001               	bra	u1296
  3094  000F82                     u1295:
  3095  000F82  8E89               	bsf	3977,7,c	;volatile
  3096  000F84                     u1296:
  3097                           
  3098                           ;LCDIO.c: 49:  LCDout((0b11110000 & Byte) >> 4);
  3099  000F84  380E               	swapf	SendLCD@Byte,w,c
  3100  000F86  0B0F               	andlw	15
  3101  000F88  0B0F               	andlw	15
  3102  000F8A  EC07  F006         	call	_LCDout
  3103                           
  3104                           ;LCDIO.c: 50:  _delay((unsigned long)((10)*(8000000/4000000.0)));
  3105  000F8E  0E06               	movlw	6
  3106  000F90                     u2057:
  3107  000F90  2EE8               	decfsz	wreg,f,c
  3108  000F92  D7FE               	bra	u2057
  3109  000F94  D000               	nop2	
  3110                           
  3111                           ;LCDIO.c: 53:  LCDout(0b00001111 & Byte);
  3112  000F96  500E               	movf	SendLCD@Byte,w,c
  3113  000F98  0B0F               	andlw	15
  3114  000F9A  EC07  F006         	call	_LCDout
  3115                           
  3116                           ;LCDIO.c: 54:  _delay((unsigned long)((50)*(8000000/4000000.0)));
  3117  000F9E  0E21               	movlw	33
  3118  000FA0                     u2067:
  3119  000FA0  2EE8               	decfsz	wreg,f,c
  3120  000FA2  D7FE               	bra	u2067
  3121  000FA4  F000               	nop	
  3122  000FA6  0012               	return		;funcret
  3123  000FA8                     __end_of_SendLCD:
  3124                           	opt callstack 0
  3125                           
  3126 ;; *************** function _LCDout *****************
  3127 ;; Defined at:
  3128 ;;		line 31 in file "LCDIO.c"
  3129 ;; Parameters:    Size  Location     Type
  3130 ;;  number          1    wreg     unsigned char 
  3131 ;; Auto vars:     Size  Location     Type
  3132 ;;  number          1   11[COMRAM] unsigned char 
  3133 ;; Return value:  Size  Location     Type
  3134 ;;                  1    wreg      void 
  3135 ;; Registers used:
  3136 ;;		wreg, status,2, status,0, cstack
  3137 ;; Tracked objects:
  3138 ;;		On entry : 0/0
  3139 ;;		On exit  : 0/0
  3140 ;;		Unchanged: 0/0
  3141 ;; Data sizes:     COMRAM   BANK0   BANK1   BANK2
  3142 ;;      Params:         0       0       0       0
  3143 ;;      Locals:         1       0       0       0
  3144 ;;      Temps:          1       0       0       0
  3145 ;;      Totals:         2       0       0       0
  3146 ;;Total ram usage:        2 bytes
  3147 ;; Hardware stack levels used:    1
  3148 ;; Hardware stack levels required when called:    4
  3149 ;; This function calls:
  3150 ;;		_E_TOG
  3151 ;; This function is called by:
  3152 ;;		_SendLCD
  3153 ;;		_init_LCD
  3154 ;; This function uses a non-reentrant model
  3155 ;;
  3156                           
  3157                           	psect	text22
  3158  000C0E                     __ptext22:
  3159                           	opt callstack 0
  3160  000C0E                     _LCDout:
  3161                           	opt callstack 23
  3162                           
  3163                           ;incstack = 0
  3164                           ;LCDout@number stored from wreg
  3165  000C0E  6E0C               	movwf	LCDout@number,c
  3166                           
  3167                           ;LCDIO.c: 33:  LATCbits.LATC0 = (0b0001 & number);
  3168  000C10  C00C  F00B         	movff	LCDout@number,??_LCDout
  3169  000C14  0E01               	movlw	1
  3170  000C16  160B               	andwf	??_LCDout,f,c
  3171  000C18  508B               	movf	3979,w,c	;volatile
  3172  000C1A  180B               	xorwf	??_LCDout,w,c
  3173  000C1C  0BFE               	andlw	-2
  3174  000C1E  180B               	xorwf	??_LCDout,w,c
  3175  000C20  6E8B               	movwf	3979,c	;volatile
  3176                           
  3177                           ;LCDIO.c: 34:  LATCbits.LATC3 = (0b0010 & number) >> 1;
  3178  000C22  C00C  F00B         	movff	LCDout@number,??_LCDout
  3179  000C26  90D8               	bcf	status,0,c
  3180  000C28  320B               	rrcf	??_LCDout,f,c
  3181  000C2A  0E01               	movlw	1
  3182  000C2C  160B               	andwf	??_LCDout,f,c
  3183  000C2E  460B               	rlncf	??_LCDout,f,c
  3184  000C30  460B               	rlncf	??_LCDout,f,c
  3185  000C32  460B               	rlncf	??_LCDout,f,c
  3186  000C34  508B               	movf	3979,w,c	;volatile
  3187  000C36  180B               	xorwf	??_LCDout,w,c
  3188  000C38  0BF7               	andlw	-9
  3189  000C3A  180B               	xorwf	??_LCDout,w,c
  3190  000C3C  6E8B               	movwf	3979,c	;volatile
  3191                           
  3192                           ;LCDIO.c: 35:  LATDbits.LATD0 = (0b0100 & number) >> 2;
  3193  000C3E  C00C  F00B         	movff	LCDout@number,??_LCDout
  3194  000C42  90D8               	bcf	status,0,c
  3195  000C44  320B               	rrcf	??_LCDout,f,c
  3196  000C46  90D8               	bcf	status,0,c
  3197  000C48  320B               	rrcf	??_LCDout,f,c
  3198  000C4A  0E01               	movlw	1
  3199  000C4C  160B               	andwf	??_LCDout,f,c
  3200  000C4E  508C               	movf	3980,w,c	;volatile
  3201  000C50  180B               	xorwf	??_LCDout,w,c
  3202  000C52  0BFE               	andlw	-2
  3203  000C54  180B               	xorwf	??_LCDout,w,c
  3204  000C56  6E8C               	movwf	3980,c	;volatile
  3205                           
  3206                           ;LCDIO.c: 36:  LATDbits.LATD1 = (0b1000 & number) >> 3;
  3207  000C58  C00C  F00B         	movff	LCDout@number,??_LCDout
  3208  000C5C  90D8               	bcf	status,0,c
  3209  000C5E  320B               	rrcf	??_LCDout,f,c
  3210  000C60  90D8               	bcf	status,0,c
  3211  000C62  320B               	rrcf	??_LCDout,f,c
  3212  000C64  90D8               	bcf	status,0,c
  3213  000C66  320B               	rrcf	??_LCDout,f,c
  3214  000C68  0E01               	movlw	1
  3215  000C6A  160B               	andwf	??_LCDout,f,c
  3216  000C6C  460B               	rlncf	??_LCDout,f,c
  3217  000C6E  508C               	movf	3980,w,c	;volatile
  3218  000C70  180B               	xorwf	??_LCDout,w,c
  3219  000C72  0BFD               	andlw	-3
  3220  000C74  180B               	xorwf	??_LCDout,w,c
  3221  000C76  6E8C               	movwf	3980,c	;volatile
  3222                           
  3223                           ;LCDIO.c: 39:  E_TOG();
  3224  000C78  EC44  F008         	call	_E_TOG	;wreg free
  3225                           
  3226                           ;LCDIO.c: 40: _delay((unsigned long)((5)*(8000000/4000000.0)));
  3227  000C7C  0E03               	movlw	3
  3228  000C7E                     u2077:
  3229  000C7E  2EE8               	decfsz	wreg,f,c
  3230  000C80  D7FE               	bra	u2077
  3231  000C82  F000               	nop	
  3232  000C84  0012               	return		;funcret
  3233  000C86                     __end_of_LCDout:
  3234                           	opt callstack 0
  3235                           
  3236 ;; *************** function _E_TOG *****************
  3237 ;; Defined at:
  3238 ;;		line 23 in file "LCDIO.c"
  3239 ;; Parameters:    Size  Location     Type
  3240 ;;		None
  3241 ;; Auto vars:     Size  Location     Type
  3242 ;;		None
  3243 ;; Return value:  Size  Location     Type
  3244 ;;                  1    wreg      void 
  3245 ;; Registers used:
  3246 ;;		wreg
  3247 ;; Tracked objects:
  3248 ;;		On entry : 0/0
  3249 ;;		On exit  : 0/0
  3250 ;;		Unchanged: 0/0
  3251 ;; Data sizes:     COMRAM   BANK0   BANK1   BANK2
  3252 ;;      Params:         0       0       0       0
  3253 ;;      Locals:         0       0       0       0
  3254 ;;      Temps:          0       0       0       0
  3255 ;;      Totals:         0       0       0       0
  3256 ;;Total ram usage:        0 bytes
  3257 ;; Hardware stack levels used:    1
  3258 ;; Hardware stack levels required when called:    3
  3259 ;; This function calls:
  3260 ;;		Nothing
  3261 ;; This function is called by:
  3262 ;;		_LCDout
  3263 ;; This function uses a non-reentrant model
  3264 ;;
  3265                           
  3266                           	psect	text23
  3267  001088                     __ptext23:
  3268                           	opt callstack 0
  3269  001088                     _E_TOG:
  3270                           	opt callstack 23
  3271                           
  3272                           ;LCDIO.c: 25: LATAbits.LATA6 = 1;
  3273                           
  3274                           ;incstack = 0
  3275  001088  8C89               	bsf	3977,6,c	;volatile
  3276                           
  3277                           ;LCDIO.c: 26: _delay((unsigned long)((5)*(8000000/4000000.0)));
  3278  00108A  0E03               	movlw	3
  3279  00108C                     u2087:
  3280  00108C  2EE8               	decfsz	wreg,f,c
  3281  00108E  D7FE               	bra	u2087
  3282  001090  F000               	nop	
  3283                           
  3284                           ;LCDIO.c: 27: LATAbits.LATA6 = 0;
  3285  001092  9C89               	bcf	3977,6,c	;volatile
  3286  001094  0012               	return		;funcret
  3287  001096                     __end_of_E_TOG:
  3288                           	opt callstack 0
  3289                           
  3290 ;; *************** function _init_motor_struct *****************
  3291 ;; Defined at:
  3292 ;;		line 99 in file "dc_motor.c"
  3293 ;; Parameters:    Size  Location     Type
  3294 ;;  mL              2   33[COMRAM] PTR struct DC_motor
  3295 ;;		 -> main@motorL(9), 
  3296 ;;  mR              2   35[COMRAM] PTR struct DC_motor
  3297 ;;		 -> main@motorR(9), 
  3298 ;; Auto vars:     Size  Location     Type
  3299 ;;		None
  3300 ;; Return value:  Size  Location     Type
  3301 ;;                  1    wreg      void 
  3302 ;; Registers used:
  3303 ;;		wreg, fsr2l, fsr2h, status,2, status,0, prodl, prodh, cstack
  3304 ;; Tracked objects:
  3305 ;;		On entry : 0/0
  3306 ;;		On exit  : 0/0
  3307 ;;		Unchanged: 0/0
  3308 ;; Data sizes:     COMRAM   BANK0   BANK1   BANK2
  3309 ;;      Params:         4       0       0       0
  3310 ;;      Locals:         0       0       0       0
  3311 ;;      Temps:          0       0       0       0
  3312 ;;      Totals:         4       0       0       0
  3313 ;;Total ram usage:        4 bytes
  3314 ;; Hardware stack levels used:    1
  3315 ;; Hardware stack levels required when called:    5
  3316 ;; This function calls:
  3317 ;;		_setMotorPWM
  3318 ;; This function is called by:
  3319 ;;		_main
  3320 ;; This function uses a non-reentrant model
  3321 ;;
  3322                           
  3323                           	psect	text24
  3324  000700                     __ptext24:
  3325                           	opt callstack 0
  3326  000700                     _init_motor_struct:
  3327                           	opt callstack 25
  3328                           
  3329                           ;dc_motor.c: 99: void init_motor_struct(struct DC_motor *mL, struct DC_motor *mR);dc_mot
      +                          or.c: 100: {;dc_motor.c: 102: mL->power = 0;
  3330                           
  3331                           ;incstack = 0
  3332  000700  C022  FFD9         	movff	init_motor_struct@mL,fsr2l
  3333  000704  C023  FFDA         	movff	init_motor_struct@mL+1,fsr2h
  3334  000708  0E00               	movlw	0
  3335  00070A  6EDF               	movwf	indf2,c
  3336                           
  3337                           ;dc_motor.c: 103: mL->direction = 1;
  3338  00070C  EE20 F001          	lfsr	2,1
  3339  000710  5022               	movf	init_motor_struct@mL,w,c
  3340  000712  26D9               	addwf	fsr2l,f,c
  3341  000714  5023               	movf	init_motor_struct@mL+1,w,c
  3342  000716  22DA               	addwfc	fsr2h,f,c
  3343  000718  0E01               	movlw	1
  3344  00071A  6EDF               	movwf	indf2,c
  3345                           
  3346                           ;dc_motor.c: 104: mL->dutyLowByte = (unsigned char *)(&PDC0L);
  3347  00071C  EE20 F002          	lfsr	2,2
  3348  000720  5022               	movf	init_motor_struct@mL,w,c
  3349  000722  26D9               	addwf	fsr2l,f,c
  3350  000724  5023               	movf	init_motor_struct@mL+1,w,c
  3351  000726  22DA               	addwfc	fsr2h,f,c
  3352  000728  0E79               	movlw	121
  3353  00072A  6EDE               	movwf	postinc2,c
  3354  00072C  0E0F               	movlw	15
  3355  00072E  6EDD               	movwf	postdec2,c
  3356                           
  3357                           ;dc_motor.c: 105: mL->dutyHighByte = (unsigned char *)(&PDC0H);
  3358  000730  EE20 F004          	lfsr	2,4
  3359  000734  5022               	movf	init_motor_struct@mL,w,c
  3360  000736  26D9               	addwf	fsr2l,f,c
  3361  000738  5023               	movf	init_motor_struct@mL+1,w,c
  3362  00073A  22DA               	addwfc	fsr2h,f,c
  3363  00073C  0E78               	movlw	120
  3364  00073E  6EDE               	movwf	postinc2,c
  3365  000740  0E0F               	movlw	15
  3366  000742  6EDD               	movwf	postdec2,c
  3367                           
  3368                           ;dc_motor.c: 106: mL->dir_pin=0;
  3369  000744  EE20 F006          	lfsr	2,6
  3370  000748  5022               	movf	init_motor_struct@mL,w,c
  3371  00074A  26D9               	addwf	fsr2l,f,c
  3372  00074C  5023               	movf	init_motor_struct@mL+1,w,c
  3373  00074E  22DA               	addwfc	fsr2h,f,c
  3374  000750  0E00               	movlw	0
  3375  000752  6EDF               	movwf	indf2,c
  3376                           
  3377                           ;dc_motor.c: 107: mL->PWMperiod=199;
  3378  000754  EE20 F007          	lfsr	2,7
  3379  000758  5022               	movf	init_motor_struct@mL,w,c
  3380  00075A  26D9               	addwf	fsr2l,f,c
  3381  00075C  5023               	movf	init_motor_struct@mL+1,w,c
  3382  00075E  22DA               	addwfc	fsr2h,f,c
  3383  000760  0EC7               	movlw	199
  3384  000762  6EDE               	movwf	postinc2,c
  3385  000764  0E00               	movlw	0
  3386  000766  6EDD               	movwf	postdec2,c
  3387                           
  3388                           ;dc_motor.c: 109: mR->power = 0;
  3389  000768  C024  FFD9         	movff	init_motor_struct@mR,fsr2l
  3390  00076C  C025  FFDA         	movff	init_motor_struct@mR+1,fsr2h
  3391  000770  0E00               	movlw	0
  3392  000772  6EDF               	movwf	indf2,c
  3393                           
  3394                           ;dc_motor.c: 110: mR->direction = 1;
  3395  000774  EE20 F001          	lfsr	2,1
  3396  000778  5024               	movf	init_motor_struct@mR,w,c
  3397  00077A  26D9               	addwf	fsr2l,f,c
  3398  00077C  5025               	movf	init_motor_struct@mR+1,w,c
  3399  00077E  22DA               	addwfc	fsr2h,f,c
  3400  000780  0E01               	movlw	1
  3401  000782  6EDF               	movwf	indf2,c
  3402                           
  3403                           ;dc_motor.c: 111: mR->dutyLowByte = (unsigned char *)(&PDC1L);
  3404  000784  EE20 F002          	lfsr	2,2
  3405  000788  5024               	movf	init_motor_struct@mR,w,c
  3406  00078A  26D9               	addwf	fsr2l,f,c
  3407  00078C  5025               	movf	init_motor_struct@mR+1,w,c
  3408  00078E  22DA               	addwfc	fsr2h,f,c
  3409  000790  0E77               	movlw	119
  3410  000792  6EDE               	movwf	postinc2,c
  3411  000794  0E0F               	movlw	15
  3412  000796  6EDD               	movwf	postdec2,c
  3413                           
  3414                           ;dc_motor.c: 112: mR->dutyHighByte = (unsigned char *)(&PDC1H);
  3415  000798  EE20 F004          	lfsr	2,4
  3416  00079C  5024               	movf	init_motor_struct@mR,w,c
  3417  00079E  26D9               	addwf	fsr2l,f,c
  3418  0007A0  5025               	movf	init_motor_struct@mR+1,w,c
  3419  0007A2  22DA               	addwfc	fsr2h,f,c
  3420  0007A4  0E76               	movlw	118
  3421  0007A6  6EDE               	movwf	postinc2,c
  3422  0007A8  0E0F               	movlw	15
  3423  0007AA  6EDD               	movwf	postdec2,c
  3424                           
  3425                           ;dc_motor.c: 113: mR->dir_pin=2;
  3426  0007AC  EE20 F006          	lfsr	2,6
  3427  0007B0  5024               	movf	init_motor_struct@mR,w,c
  3428  0007B2  26D9               	addwf	fsr2l,f,c
  3429  0007B4  5025               	movf	init_motor_struct@mR+1,w,c
  3430  0007B6  22DA               	addwfc	fsr2h,f,c
  3431  0007B8  0E02               	movlw	2
  3432  0007BA  6EDF               	movwf	indf2,c
  3433                           
  3434                           ;dc_motor.c: 114: mR->PWMperiod=199;
  3435  0007BC  EE20 F007          	lfsr	2,7
  3436  0007C0  5024               	movf	init_motor_struct@mR,w,c
  3437  0007C2  26D9               	addwf	fsr2l,f,c
  3438  0007C4  5025               	movf	init_motor_struct@mR+1,w,c
  3439  0007C6  22DA               	addwfc	fsr2h,f,c
  3440  0007C8  0EC7               	movlw	199
  3441  0007CA  6EDE               	movwf	postinc2,c
  3442  0007CC  0E00               	movlw	0
  3443  0007CE  6EDD               	movwf	postdec2,c
  3444                           
  3445                           ;dc_motor.c: 116: setMotorPWM(mL);
  3446  0007D0  C022  F019         	movff	init_motor_struct@mL,setMotorPWM@m
  3447  0007D4  C023  F01A         	movff	init_motor_struct@mL+1,setMotorPWM@m+1
  3448  0007D8  EC75  F002         	call	_setMotorPWM	;wreg free
  3449                           
  3450                           ;dc_motor.c: 117: setMotorPWM(mR);
  3451  0007DC  C024  F019         	movff	init_motor_struct@mR,setMotorPWM@m
  3452  0007E0  C025  F01A         	movff	init_motor_struct@mR+1,setMotorPWM@m+1
  3453  0007E4  EC75  F002         	call	_setMotorPWM	;wreg free
  3454  0007E8  0012               	return		;funcret
  3455  0007EA                     __end_of_init_motor_struct:
  3456                           	opt callstack 0
  3457                           
  3458 ;; *************** function _setMotorPWM *****************
  3459 ;; Defined at:
  3460 ;;		line 18 in file "dc_motor.c"
  3461 ;; Parameters:    Size  Location     Type
  3462 ;;  m               2   24[COMRAM] PTR struct DC_motor
  3463 ;;		 -> main@motorR(9), main@motorL(9), 
  3464 ;; Auto vars:     Size  Location     Type
  3465 ;;  PWMduty         2   31[COMRAM] int 
  3466 ;; Return value:  Size  Location     Type
  3467 ;;                  1    wreg      void 
  3468 ;; Registers used:
  3469 ;;		wreg, fsr2l, fsr2h, status,2, status,0, prodl, prodh, cstack
  3470 ;; Tracked objects:
  3471 ;;		On entry : 0/0
  3472 ;;		On exit  : 0/0
  3473 ;;		Unchanged: 0/0
  3474 ;; Data sizes:     COMRAM   BANK0   BANK1   BANK2
  3475 ;;      Params:         2       0       0       0
  3476 ;;      Locals:         2       0       0       0
  3477 ;;      Temps:          5       0       0       0
  3478 ;;      Totals:         9       0       0       0
  3479 ;;Total ram usage:        9 bytes
  3480 ;; Hardware stack levels used:    1
  3481 ;; Hardware stack levels required when called:    4
  3482 ;; This function calls:
  3483 ;;		___awdiv
  3484 ;;		___wmul
  3485 ;; This function is called by:
  3486 ;;		_stop
  3487 ;;		_turn
  3488 ;;		_moveForward
  3489 ;;		_moveBackward
  3490 ;;		_init_motor_struct
  3491 ;; This function uses a non-reentrant model
  3492 ;;
  3493                           
  3494                           	psect	text25
  3495  0004EA                     __ptext25:
  3496                           	opt callstack 0
  3497  0004EA                     _setMotorPWM:
  3498                           	opt callstack 24
  3499                           
  3500                           ;dc_motor.c: 18: void setMotorPWM(struct DC_motor *m);dc_motor.c: 19: {;dc_motor.c: 20: 
      +                              int PWMduty;;dc_motor.c: 22:     PWMduty = (m->power*m->PWMperiod)/100;
  3501                           
  3502                           ;incstack = 0
  3503  0004EA  C019  FFD9         	movff	setMotorPWM@m,fsr2l
  3504  0004EE  C01A  FFDA         	movff	setMotorPWM@m+1,fsr2h
  3505  0004F2  50DF               	movf	indf2,w,c
  3506  0004F4  6E1B               	movwf	??_setMotorPWM& (0+255),c
  3507  0004F6  501B               	movf	??_setMotorPWM,w,c
  3508  0004F8  6E0B               	movwf	___wmul@multiplier,c
  3509  0004FA  6A0C               	clrf	___wmul@multiplier+1,c
  3510  0004FC  EE20 F007          	lfsr	2,7
  3511  000500  5019               	movf	setMotorPWM@m,w,c
  3512  000502  26D9               	addwf	fsr2l,f,c
  3513  000504  501A               	movf	setMotorPWM@m+1,w,c
  3514  000506  22DA               	addwfc	fsr2h,f,c
  3515  000508  CFDE F00D          	movff	postinc2,___wmul@multiplicand
  3516  00050C  CFDD F00E          	movff	postdec2,___wmul@multiplicand+1
  3517  000510  ECFE  F007         	call	___wmul	;wreg free
  3518  000514  C00B  F011         	movff	?___wmul,___awdiv@dividend
  3519  000518  C00C  F012         	movff	?___wmul+1,___awdiv@dividend+1
  3520  00051C  0E00               	movlw	0
  3521  00051E  6E14               	movwf	___awdiv@divisor+1,c
  3522  000520  0E64               	movlw	100
  3523  000522  6E13               	movwf	___awdiv@divisor,c
  3524  000524  EC02  F005         	call	___awdiv	;wreg free
  3525  000528  C011  F020         	movff	?___awdiv,setMotorPWM@PWMduty
  3526  00052C  C012  F021         	movff	?___awdiv+1,setMotorPWM@PWMduty+1
  3527                           
  3528                           ;dc_motor.c: 24:     if (m->direction)
  3529  000530  EE20 F001          	lfsr	2,1
  3530  000534  5019               	movf	setMotorPWM@m,w,c
  3531  000536  26D9               	addwf	fsr2l,f,c
  3532  000538  501A               	movf	setMotorPWM@m+1,w,c
  3533  00053A  22DA               	addwfc	fsr2h,f,c
  3534  00053C  50DF               	movf	indf2,w,c
  3535  00053E  B4D8               	btfsc	status,2,c
  3536  000540  D024               	goto	l2265
  3537                           
  3538                           ;dc_motor.c: 25:     {;dc_motor.c: 26:         LATB=LATB|(1<<(m->dir_pin));
  3539  000542  EE20 F006          	lfsr	2,6
  3540  000546  5019               	movf	setMotorPWM@m,w,c
  3541  000548  26D9               	addwf	fsr2l,f,c
  3542  00054A  501A               	movf	setMotorPWM@m+1,w,c
  3543  00054C  22DA               	addwfc	fsr2h,f,c
  3544  00054E  50DF               	movf	indf2,w,c
  3545  000550  6E1B               	movwf	??_setMotorPWM& (0+255),c
  3546  000552  0E01               	movlw	1
  3547  000554  6E1C               	movwf	(??_setMotorPWM+1)& (0+255),c
  3548  000556  2A1B               	incf	??_setMotorPWM,f,c
  3549  000558  D002               	goto	u1404
  3550  00055A                     u1405:
  3551  00055A  90D8               	bcf	status,0,c
  3552  00055C  361C               	rlcf	??_setMotorPWM+1,f,c
  3553  00055E                     u1404:
  3554  00055E  2E1B               	decfsz	??_setMotorPWM,f,c
  3555  000560  D7FC               	goto	u1405
  3556  000562  501C               	movf	??_setMotorPWM+1,w,c
  3557  000564  108A               	iorwf	3978,w,c	;volatile
  3558  000566  6E8A               	movwf	3978,c	;volatile
  3559                           
  3560                           ;dc_motor.c: 27:   PWMduty=m->PWMperiod-PWMduty;
  3561  000568  EE20 F007          	lfsr	2,7
  3562  00056C  5019               	movf	setMotorPWM@m,w,c
  3563  00056E  26D9               	addwf	fsr2l,f,c
  3564  000570  501A               	movf	setMotorPWM@m+1,w,c
  3565  000572  22DA               	addwfc	fsr2h,f,c
  3566  000574  CFDE F01B          	movff	postinc2,??_setMotorPWM
  3567  000578  CFDD F01C          	movff	postdec2,??_setMotorPWM+1
  3568  00057C  5020               	movf	setMotorPWM@PWMduty,w,c
  3569  00057E  5C1B               	subwf	??_setMotorPWM,w,c
  3570  000580  6E20               	movwf	setMotorPWM@PWMduty,c
  3571  000582  5021               	movf	setMotorPWM@PWMduty+1,w,c
  3572  000584  581C               	subwfb	??_setMotorPWM+1,w,c
  3573  000586  6E21               	movwf	setMotorPWM@PWMduty+1,c
  3574                           
  3575                           ;dc_motor.c: 28:     }
  3576  000588  D014               	goto	l121
  3577  00058A                     l2265:
  3578                           
  3579                           ;dc_motor.c: 30:     {;dc_motor.c: 31:         LATB=LATB&(~(1<<(m->dir_pin)));
  3580  00058A  EE20 F006          	lfsr	2,6
  3581  00058E  5019               	movf	setMotorPWM@m,w,c
  3582  000590  26D9               	addwf	fsr2l,f,c
  3583  000592  501A               	movf	setMotorPWM@m+1,w,c
  3584  000594  22DA               	addwfc	fsr2h,f,c
  3585  000596  50DF               	movf	indf2,w,c
  3586  000598  6E1B               	movwf	??_setMotorPWM& (0+255),c
  3587  00059A  0E01               	movlw	1
  3588  00059C  6E1C               	movwf	(??_setMotorPWM+1)& (0+255),c
  3589  00059E  2A1B               	incf	??_setMotorPWM,f,c
  3590  0005A0  D002               	goto	u1414
  3591  0005A2                     u1415:
  3592  0005A2  90D8               	bcf	status,0,c
  3593  0005A4  361C               	rlcf	??_setMotorPWM+1,f,c
  3594  0005A6                     u1414:
  3595  0005A6  2E1B               	decfsz	??_setMotorPWM,f,c
  3596  0005A8  D7FC               	goto	u1415
  3597  0005AA  501C               	movf	??_setMotorPWM+1,w,c
  3598  0005AC  0AFF               	xorlw	255
  3599  0005AE  148A               	andwf	3978,w,c	;volatile
  3600  0005B0  6E8A               	movwf	3978,c	;volatile
  3601  0005B2                     l121:
  3602                           
  3603                           ;dc_motor.c: 35:     *(m->dutyLowByte)=PWMduty<<2;
  3604  0005B2  EE20 F002          	lfsr	2,2
  3605  0005B6  5019               	movf	setMotorPWM@m,w,c
  3606  0005B8  26D9               	addwf	fsr2l,f,c
  3607  0005BA  501A               	movf	setMotorPWM@m+1,w,c
  3608  0005BC  22DA               	addwfc	fsr2h,f,c
  3609  0005BE  CFDE F01B          	movff	postinc2,??_setMotorPWM
  3610  0005C2  CFDD F01C          	movff	postdec2,??_setMotorPWM+1
  3611  0005C6  C01B  FFD9         	movff	??_setMotorPWM,fsr2l
  3612  0005CA  C01C  FFDA         	movff	??_setMotorPWM+1,fsr2h
  3613  0005CE  4420               	rlncf	setMotorPWM@PWMduty,w,c
  3614  0005D0  46E8               	rlncf	wreg,f,c
  3615  0005D2  0BFC               	andlw	252
  3616  0005D4  6EDF               	movwf	indf2,c
  3617                           
  3618                           ;dc_motor.c: 36:     *(m->dutyHighByte)=PWMduty>>6;
  3619  0005D6  EE20 F004          	lfsr	2,4
  3620  0005DA  5019               	movf	setMotorPWM@m,w,c
  3621  0005DC  26D9               	addwf	fsr2l,f,c
  3622  0005DE  501A               	movf	setMotorPWM@m+1,w,c
  3623  0005E0  22DA               	addwfc	fsr2h,f,c
  3624  0005E2  CFDE F01B          	movff	postinc2,??_setMotorPWM
  3625  0005E6  CFDD F01C          	movff	postdec2,??_setMotorPWM+1
  3626  0005EA  C01B  FFD9         	movff	??_setMotorPWM,fsr2l
  3627  0005EE  C01C  FFDA         	movff	??_setMotorPWM+1,fsr2h
  3628  0005F2  C020  F01D         	movff	setMotorPWM@PWMduty,??_setMotorPWM+2
  3629  0005F6  C021  F01E         	movff	setMotorPWM@PWMduty+1,??_setMotorPWM+3
  3630  0005FA  0E06               	movlw	6
  3631  0005FC  6E1F               	movwf	(??_setMotorPWM+4)& (0+255),c
  3632  0005FE                     u1425:
  3633  0005FE  341E               	rlcf	??_setMotorPWM+3,w,c
  3634  000600  321E               	rrcf	??_setMotorPWM+3,f,c
  3635  000602  321D               	rrcf	??_setMotorPWM+2,f,c
  3636  000604  2E1F               	decfsz	(??_setMotorPWM+4)& (0+255),f,c
  3637  000606  D7FB               	goto	u1425
  3638  000608  501D               	movf	??_setMotorPWM+2,w,c
  3639  00060A  6EDF               	movwf	indf2,c
  3640  00060C  0012               	return		;funcret
  3641  00060E                     __end_of_setMotorPWM:
  3642                           	opt callstack 0
  3643                           
  3644 ;; *************** function ___wmul *****************
  3645 ;; Defined at:
  3646 ;;		line 15 in file "C:\Program Files (x86)\Microchip\xc8\v2.05\pic\sources\c99\common\Umul16.c"
  3647 ;; Parameters:    Size  Location     Type
  3648 ;;  multiplier      2   10[COMRAM] unsigned int 
  3649 ;;  multiplicand    2   12[COMRAM] unsigned int 
  3650 ;; Auto vars:     Size  Location     Type
  3651 ;;  product         2   14[COMRAM] unsigned int 
  3652 ;; Return value:  Size  Location     Type
  3653 ;;                  2   10[COMRAM] unsigned int 
  3654 ;; Registers used:
  3655 ;;		wreg, status,2, status,0, prodl, prodh
  3656 ;; Tracked objects:
  3657 ;;		On entry : 0/0
  3658 ;;		On exit  : 0/0
  3659 ;;		Unchanged: 0/0
  3660 ;; Data sizes:     COMRAM   BANK0   BANK1   BANK2
  3661 ;;      Params:         4       0       0       0
  3662 ;;      Locals:         2       0       0       0
  3663 ;;      Temps:          0       0       0       0
  3664 ;;      Totals:         6       0       0       0
  3665 ;;Total ram usage:        6 bytes
  3666 ;; Hardware stack levels used:    1
  3667 ;; Hardware stack levels required when called:    3
  3668 ;; This function calls:
  3669 ;;		Nothing
  3670 ;; This function is called by:
  3671 ;;		_setMotorPWM
  3672 ;; This function uses a non-reentrant model
  3673 ;;
  3674                           
  3675                           	psect	text26
  3676  000FFC                     __ptext26:
  3677                           	opt callstack 0
  3678  000FFC                     ___wmul:
  3679                           	opt callstack 24
  3680                           
  3681                           ;incstack = 0
  3682  000FFC  500B               	movf	___wmul@multiplier,w,c
  3683  000FFE  020D               	mulwf	___wmul@multiplicand,c
  3684  001000  CFF3 F00F          	movff	prodl,___wmul@product
  3685  001004  CFF4 F010          	movff	prodh,___wmul@product+1
  3686  001008  500B               	movf	___wmul@multiplier,w,c
  3687  00100A  020E               	mulwf	___wmul@multiplicand+1,c
  3688  00100C  50F3               	movf	prodl,w,c
  3689  00100E  2610               	addwf	___wmul@product+1,f,c
  3690  001010  500C               	movf	___wmul@multiplier+1,w,c
  3691  001012  020D               	mulwf	___wmul@multiplicand,c
  3692  001014  50F3               	movf	prodl,w,c
  3693  001016  2610               	addwf	___wmul@product+1,f,c
  3694  001018  C00F  F00B         	movff	___wmul@product,?___wmul
  3695  00101C  C010  F00C         	movff	___wmul@product+1,?___wmul+1
  3696  001020  0012               	return		;funcret
  3697  001022                     __end_of___wmul:
  3698                           	opt callstack 0
  3699                           
  3700 ;; *************** function ___awdiv *****************
  3701 ;; Defined at:
  3702 ;;		line 7 in file "C:\Program Files (x86)\Microchip\xc8\v2.05\pic\sources\c99\common\awdiv.c"
  3703 ;; Parameters:    Size  Location     Type
  3704 ;;  dividend        2   16[COMRAM] int 
  3705 ;;  divisor         2   18[COMRAM] int 
  3706 ;; Auto vars:     Size  Location     Type
  3707 ;;  quotient        2   22[COMRAM] int 
  3708 ;;  sign            1   21[COMRAM] unsigned char 
  3709 ;;  counter         1   20[COMRAM] unsigned char 
  3710 ;; Return value:  Size  Location     Type
  3711 ;;                  2   16[COMRAM] int 
  3712 ;; Registers used:
  3713 ;;		wreg, status,2, status,0
  3714 ;; Tracked objects:
  3715 ;;		On entry : 0/0
  3716 ;;		On exit  : 0/0
  3717 ;;		Unchanged: 0/0
  3718 ;; Data sizes:     COMRAM   BANK0   BANK1   BANK2
  3719 ;;      Params:         4       0       0       0
  3720 ;;      Locals:         4       0       0       0
  3721 ;;      Temps:          0       0       0       0
  3722 ;;      Totals:         8       0       0       0
  3723 ;;Total ram usage:        8 bytes
  3724 ;; Hardware stack levels used:    1
  3725 ;; Hardware stack levels required when called:    3
  3726 ;; This function calls:
  3727 ;;		Nothing
  3728 ;; This function is called by:
  3729 ;;		_setMotorPWM
  3730 ;; This function uses a non-reentrant model
  3731 ;;
  3732                           
  3733                           	psect	text27
  3734  000A04                     __ptext27:
  3735                           	opt callstack 0
  3736  000A04                     ___awdiv:
  3737                           	opt callstack 24
  3738                           
  3739                           ;incstack = 0
  3740  000A04  0E00               	movlw	0
  3741  000A06  6E16               	movwf	___awdiv@sign,c
  3742  000A08  AE14               	btfss	___awdiv@divisor+1,7,c
  3743  000A0A  D006               	goto	l2213
  3744  000A0C  6C13               	negf	___awdiv@divisor,c
  3745  000A0E  1E14               	comf	___awdiv@divisor+1,f,c
  3746  000A10  B0D8               	btfsc	status,0,c
  3747  000A12  2A14               	incf	___awdiv@divisor+1,f,c
  3748  000A14  0E01               	movlw	1
  3749  000A16  6E16               	movwf	___awdiv@sign,c
  3750  000A18                     l2213:
  3751  000A18  AE12               	btfss	___awdiv@dividend+1,7,c
  3752  000A1A  D006               	goto	l2219
  3753  000A1C  6C11               	negf	___awdiv@dividend,c
  3754  000A1E  1E12               	comf	___awdiv@dividend+1,f,c
  3755  000A20  B0D8               	btfsc	status,0,c
  3756  000A22  2A12               	incf	___awdiv@dividend+1,f,c
  3757  000A24  0E01               	movlw	1
  3758  000A26  1A16               	xorwf	___awdiv@sign,f,c
  3759  000A28                     l2219:
  3760  000A28  0E00               	movlw	0
  3761  000A2A  6E18               	movwf	___awdiv@quotient+1,c
  3762  000A2C  0E00               	movlw	0
  3763  000A2E  6E17               	movwf	___awdiv@quotient,c
  3764  000A30  5013               	movf	___awdiv@divisor,w,c
  3765  000A32  1014               	iorwf	___awdiv@divisor+1,w,c
  3766  000A34  B4D8               	btfsc	status,2,c
  3767  000A36  D01C               	goto	l2241
  3768  000A38  0E01               	movlw	1
  3769  000A3A  6E15               	movwf	___awdiv@counter,c
  3770  000A3C  D004               	goto	l2227
  3771  000A3E                     l2225:
  3772  000A3E  90D8               	bcf	status,0,c
  3773  000A40  3613               	rlcf	___awdiv@divisor,f,c
  3774  000A42  3614               	rlcf	___awdiv@divisor+1,f,c
  3775  000A44  2A15               	incf	___awdiv@counter,f,c
  3776  000A46                     l2227:
  3777  000A46  AE14               	btfss	___awdiv@divisor+1,7,c
  3778  000A48  D7FA               	goto	l2225
  3779  000A4A                     u1330:
  3780  000A4A  90D8               	bcf	status,0,c
  3781  000A4C  3617               	rlcf	___awdiv@quotient,f,c
  3782  000A4E  3618               	rlcf	___awdiv@quotient+1,f,c
  3783  000A50  5013               	movf	___awdiv@divisor,w,c
  3784  000A52  5C11               	subwf	___awdiv@dividend,w,c
  3785  000A54  5014               	movf	___awdiv@divisor+1,w,c
  3786  000A56  5812               	subwfb	___awdiv@dividend+1,w,c
  3787  000A58  A0D8               	btfss	status,0,c
  3788  000A5A  D005               	goto	l2237
  3789  000A5C  5013               	movf	___awdiv@divisor,w,c
  3790  000A5E  5E11               	subwf	___awdiv@dividend,f,c
  3791  000A60  5014               	movf	___awdiv@divisor+1,w,c
  3792  000A62  5A12               	subwfb	___awdiv@dividend+1,f,c
  3793  000A64  8017               	bsf	___awdiv@quotient,0,c
  3794  000A66                     l2237:
  3795  000A66  90D8               	bcf	status,0,c
  3796  000A68  3214               	rrcf	___awdiv@divisor+1,f,c
  3797  000A6A  3213               	rrcf	___awdiv@divisor,f,c
  3798  000A6C  2E15               	decfsz	___awdiv@counter,f,c
  3799  000A6E  D7ED               	goto	u1330
  3800  000A70                     l2241:
  3801  000A70  5016               	movf	___awdiv@sign,w,c
  3802  000A72  B4D8               	btfsc	status,2,c
  3803  000A74  D004               	goto	l2245
  3804  000A76  6C17               	negf	___awdiv@quotient,c
  3805  000A78  1E18               	comf	___awdiv@quotient+1,f,c
  3806  000A7A  B0D8               	btfsc	status,0,c
  3807  000A7C  2A18               	incf	___awdiv@quotient+1,f,c
  3808  000A7E                     l2245:
  3809  000A7E  C017  F011         	movff	___awdiv@quotient,?___awdiv
  3810  000A82  C018  F012         	movff	___awdiv@quotient+1,?___awdiv+1
  3811  000A86  0012               	return		;funcret
  3812  000A88                     __end_of___awdiv:
  3813                           	opt callstack 0
  3814                           
  3815 ;; *************** function _InterruptHandlerLow *****************
  3816 ;; Defined at:
  3817 ;;		line 93 in file "main.c"
  3818 ;; Parameters:    Size  Location     Type
  3819 ;;		None
  3820 ;; Auto vars:     Size  Location     Type
  3821 ;;		None
  3822 ;; Return value:  Size  Location     Type
  3823 ;;                  1    wreg      void 
  3824 ;; Registers used:
  3825 ;;		wreg, status,2, status,0
  3826 ;; Tracked objects:
  3827 ;;		On entry : 0/0
  3828 ;;		On exit  : 0/0
  3829 ;;		Unchanged: 0/0
  3830 ;; Data sizes:     COMRAM   BANK0   BANK1   BANK2
  3831 ;;      Params:         0       0       0       0
  3832 ;;      Locals:         0       0       0       0
  3833 ;;      Temps:          3       0       0       0
  3834 ;;      Totals:         3       0       0       0
  3835 ;;Total ram usage:        3 bytes
  3836 ;; Hardware stack levels used:    1
  3837 ;; Hardware stack levels required when called:    2
  3838 ;; This function calls:
  3839 ;;		Nothing
  3840 ;; This function is called by:
  3841 ;;		Interrupt level 1
  3842 ;; This function uses a non-reentrant model
  3843 ;;
  3844                           
  3845                           	psect	intcodelo
  3846  000018                     __pintcodelo:
  3847                           	opt callstack 0
  3848  000018                     _InterruptHandlerLow:
  3849                           	opt callstack 22
  3850                           
  3851                           ;incstack = 0
  3852  000018  8048               	bsf	btemp,0,c	;set compiler interrupt flag (level 1)
  3853  00001A  CFD8 F008          	movff	status,??_InterruptHandlerLow
  3854  00001E  CFE8 F009          	movff	wreg,??_InterruptHandlerLow+1
  3855  000022  CFE0 F00A          	movff	bsr,??_InterruptHandlerLow+2
  3856                           
  3857                           ;main.c: 96:     if((INTCONbits.TMR0IF) && (robot_mode == 1))
  3858  000026  A4F2               	btfss	4082,2,c	;volatile
  3859  000028  D00A               	goto	i1l70
  3860  00002A  0442               	decf	_robot_mode,w,c	;volatile
  3861  00002C  A4D8               	btfss	status,2,c
  3862  00002E  D007               	goto	i1l70
  3863                           
  3864                           ;main.c: 97:     {;main.c: 98:         movement_time += 1;
  3865  000030  0E01               	movlw	1
  3866  000032  2643               	addwf	_movement_time,f,c	;volatile
  3867  000034  0E00               	movlw	0
  3868  000036  2244               	addwfc	_movement_time+1,f,c	;volatile
  3869  000038  2245               	addwfc	_movement_time+2,f,c	;volatile
  3870  00003A  2246               	addwfc	_movement_time+3,f,c	;volatile
  3871  00003C  D00B               	goto	i1l1607
  3872  00003E                     i1l70:
  3873  00003E  A4F2               	btfss	4082,2,c	;volatile
  3874  000040  D009               	goto	i1l1607
  3875  000042  0E02               	movlw	2
  3876  000044  1842               	xorwf	_robot_mode,w,c	;volatile
  3877  000046  A4D8               	btfss	status,2,c
  3878  000048  D005               	goto	i1l1607
  3879                           
  3880                           ;main.c: 103:     {;main.c: 104:         movement_time -= 1;
  3881  00004A  0643               	decf	_movement_time,f,c	;volatile
  3882  00004C  0E00               	movlw	0
  3883  00004E  5A44               	subwfb	_movement_time+1,f,c	;volatile
  3884  000050  5A45               	subwfb	_movement_time+2,f,c	;volatile
  3885  000052  5A46               	subwfb	_movement_time+3,f,c	;volatile
  3886  000054                     i1l1607:
  3887                           
  3888                           ;main.c: 109:     {;main.c: 110:         INTCONbits.TMR0IF = 0;
  3889                           
  3890                           ;main.c: 108:     else
  3891                           
  3892                           ;main.c: 106:     }
  3893                           
  3894                           ;main.c: 105:         INTCONbits.TMR0IF = 0;
  3895  000054  94F2               	bcf	4082,2,c	;volatile
  3896  000056  C00A  FFE0         	movff	??_InterruptHandlerLow+2,bsr
  3897  00005A  C009  FFE8         	movff	??_InterruptHandlerLow+1,wreg
  3898  00005E  C008  FFD8         	movff	??_InterruptHandlerLow,status
  3899  000062  9048               	bcf	btemp,0,c	;clear compiler interrupt flag (level 1)
  3900  000064  0010               	retfie	
  3901  000066                     __end_of_InterruptHandlerLow:
  3902                           	opt callstack 0
  3903                           
  3904 ;; *************** function _InterruptHandlerHigh *****************
  3905 ;; Defined at:
  3906 ;;		line 75 in file "main.c"
  3907 ;; Parameters:    Size  Location     Type
  3908 ;;		None
  3909 ;; Auto vars:     Size  Location     Type
  3910 ;;  throwaway       1    0        unsigned char 
  3911 ;; Return value:  Size  Location     Type
  3912 ;;                  1    wreg      void 
  3913 ;; Registers used:
  3914 ;;		wreg, fsr2l, fsr2h, status,2, status,0, cstack
  3915 ;; Tracked objects:
  3916 ;;		On entry : 0/0
  3917 ;;		On exit  : 0/0
  3918 ;;		Unchanged: 0/0
  3919 ;; Data sizes:     COMRAM   BANK0   BANK1   BANK2
  3920 ;;      Params:         0       0       0       0
  3921 ;;      Locals:         1       0       0       0
  3922 ;;      Temps:          2       0       0       0
  3923 ;;      Totals:         3       0       0       0
  3924 ;;Total ram usage:        3 bytes
  3925 ;; Hardware stack levels used:    1
  3926 ;; Hardware stack levels required when called:    1
  3927 ;; This function calls:
  3928 ;;		_processRFID
  3929 ;; This function is called by:
  3930 ;;		Interrupt level 2
  3931 ;; This function uses a non-reentrant model
  3932 ;;
  3933                           
  3934                           	psect	intcode
  3935  000008                     __pintcode:
  3936                           	opt callstack 0
  3937  000008                     _InterruptHandlerHigh:
  3938                           	opt callstack 22
  3939                           
  3940                           ;incstack = 0
  3941  000008  8248               	bsf	btemp,1,c	;set compiler interrupt flag (level 2)
  3942  00000A  EFA2  F007         	goto	int_func
  3943                           
  3944                           	psect	intcode_body
  3945  000F44                     __pintcode_body:
  3946                           	opt callstack 22
  3947  000F44                     int_func:
  3948                           	opt callstack 22
  3949  000F44  CFD9 F005          	movff	fsr2l,??_InterruptHandlerHigh
  3950  000F48  CFDA F006          	movff	fsr2h,??_InterruptHandlerHigh+1
  3951                           
  3952                           ;main.c: 79:     if((PIR1bits.RCIF) && (robot_mode == 1))
  3953  000F4C  AA9E               	btfss	3998,5,c	;volatile
  3954  000F4E  D00D               	goto	i2l63
  3955  000F50  0442               	decf	_robot_mode,w,c	;volatile
  3956  000F52  A4D8               	btfss	status,2,c
  3957  000F54  D00A               	goto	i2l63
  3958                           
  3959                           ;main.c: 80:     {;main.c: 82:         RFID_flag = processRFID(RFIDbuf, RCREG);
  3960  000F56  0E84               	movlw	low _RFIDbuf
  3961  000F58  6E01               	movwf	processRFID@RFIDbuf,c
  3962  000F5A  0E00               	movlw	high _RFIDbuf
  3963  000F5C  6E02               	movwf	processRFID@RFIDbuf+1,c
  3964  000F5E  CFAE F003          	movff	4014,processRFID@latestChar	;volatile
  3965  000F62  ECFD  F006         	call	_processRFID	;wreg free
  3966  000F66  6E47               	movwf	_RFID_flag,c	;volatile
  3967                           
  3968                           ;main.c: 83:     }
  3969  000F68  D001               	goto	i2l65
  3970  000F6A                     i2l63:
  3971  000F6A  50AE               	movf	4014,w,c	;volatile
  3972  000F6C                     i2l65:
  3973  000F6C  C006  FFDA         	movff	??_InterruptHandlerHigh+1,fsr2h
  3974  000F70  C005  FFD9         	movff	??_InterruptHandlerHigh,fsr2l
  3975  000F74  9248               	bcf	btemp,1,c	;clear compiler interrupt flag (level 2)
  3976  000F76  0011               	retfie		f
  3977  000F78                     __end_of_InterruptHandlerHigh:
  3978                           	opt callstack 0
  3979                           
  3980 ;; *************** function _processRFID *****************
  3981 ;; Defined at:
  3982 ;;		line 34 in file "RFID.c"
  3983 ;; Parameters:    Size  Location     Type
  3984 ;;  RFIDbuf         2    0[COMRAM] PTR volatile unsigned ch
  3985 ;;		 -> RFIDbuf(12), 
  3986 ;;  latestChar      1    2[COMRAM] unsigned char 
  3987 ;; Auto vars:     Size  Location     Type
  3988 ;;  i               1    3[COMRAM] unsigned char 
  3989 ;; Return value:  Size  Location     Type
  3990 ;;                  1    wreg      unsigned char 
  3991 ;; Registers used:
  3992 ;;		wreg, fsr2l, fsr2h, status,2, status,0
  3993 ;; Tracked objects:
  3994 ;;		On entry : 0/0
  3995 ;;		On exit  : 0/0
  3996 ;;		Unchanged: 0/0
  3997 ;; Data sizes:     COMRAM   BANK0   BANK1   BANK2
  3998 ;;      Params:         3       0       0       0
  3999 ;;      Locals:         1       0       0       0
  4000 ;;      Temps:          0       0       0       0
  4001 ;;      Totals:         4       0       0       0
  4002 ;;Total ram usage:        4 bytes
  4003 ;; Hardware stack levels used:    1
  4004 ;; This function calls:
  4005 ;;		Nothing
  4006 ;; This function is called by:
  4007 ;;		_InterruptHandlerHigh
  4008 ;; This function uses a non-reentrant model
  4009 ;;
  4010                           
  4011                           	psect	text30
  4012  000DFA                     __ptext30:
  4013                           	opt callstack 0
  4014  000DFA                     _processRFID:
  4015                           	opt callstack 22
  4016                           
  4017                           ;RFID.c: 34: char processRFID(volatile char RFIDbuf[], char latestChar);RFID.c: 35: {;RF
      +                          ID.c: 39:     static char position_in_buf;;RFID.c: 42:     if(latestChar == 0x03)
  4018                           
  4019                           ;incstack = 0
  4020  000DFA  0E03               	movlw	3
  4021  000DFC  1803               	xorwf	processRFID@latestChar,w,c
  4022  000DFE  A4D8               	btfss	status,2,c
  4023  000E00  D002               	goto	i2l1965
  4024                           
  4025                           ;RFID.c: 43:     {;RFID.c: 44:         return 1;
  4026  000E02  0E01               	movlw	1
  4027  000E04  0012               	return	
  4028  000E06                     i2l1965:
  4029                           
  4030                           ;RFID.c: 47:     {;RFID.c: 50:        if(latestChar == 0x02)
  4031  000E06  0E02               	movlw	2
  4032  000E08  1803               	xorwf	processRFID@latestChar,w,c
  4033  000E0A  A4D8               	btfss	status,2,c
  4034  000E0C  D012               	goto	i2l1985
  4035                           
  4036                           ;RFID.c: 51:         {;RFID.c: 52:            position_in_buf = 0;
  4037  000E0E  0E00               	movlw	0
  4038  000E10  6E41               	movwf	processRFID@position_in_buf,c
  4039                           
  4040                           ;RFID.c: 53:            for(char i=0 ;i<12 ;i++)
  4041  000E12  0E00               	movlw	0
  4042  000E14  6E04               	movwf	processRFID@i,c
  4043  000E16                     i2l1973:
  4044                           
  4045                           ;RFID.c: 54:            {;RFID.c: 55:                RFIDbuf[i] = 0;
  4046  000E16  5004               	movf	processRFID@i,w,c
  4047  000E18  2401               	addwf	processRFID@RFIDbuf,w,c
  4048  000E1A  6ED9               	movwf	fsr2l,c
  4049  000E1C  0E00               	movlw	0
  4050  000E1E  2002               	addwfc	processRFID@RFIDbuf+1,w,c
  4051  000E20  6EDA               	movwf	fsr2h,c
  4052  000E22  0E00               	movlw	0
  4053  000E24  6EDF               	movwf	indf2,c
  4054                           
  4055                           ;RFID.c: 56:            }
  4056  000E26  2A04               	incf	processRFID@i,f,c
  4057  000E28  0E0B               	movlw	11
  4058  000E2A  6404               	cpfsgt	processRFID@i,c
  4059  000E2C  D7F4               	goto	i2l1973
  4060  000E2E                     i2u112_40:
  4061                           
  4062                           ;RFID.c: 57:            return 0;
  4063  000E2E  0E00               	movlw	0
  4064  000E30  0012               	return	
  4065  000E32                     i2l1985:
  4066                           
  4067                           ;RFID.c: 61:         {;RFID.c: 62:             RFIDbuf[position_in_buf] = latestChar;
  4068  000E32  5041               	movf	processRFID@position_in_buf,w,c
  4069  000E34  2401               	addwf	processRFID@RFIDbuf,w,c
  4070  000E36  6ED9               	movwf	fsr2l,c
  4071  000E38  0E00               	movlw	0
  4072  000E3A  2002               	addwfc	processRFID@RFIDbuf+1,w,c
  4073  000E3C  6EDA               	movwf	fsr2h,c
  4074  000E3E  C003  FFDF         	movff	processRFID@latestChar,indf2
  4075                           
  4076                           ;RFID.c: 63:             position_in_buf++;
  4077  000E42  2A41               	incf	processRFID@position_in_buf,f,c
  4078  000E44  D7F4               	goto	i2u112_40
  4079  000E46                     __end_of_processRFID:
  4080                           	opt callstack 0
  4081                           
  4082                           	psect	rparam
  4083  0000                     
  4084                           	psect	temp
  4085  000048                     btemp:
  4086                           	opt callstack 0
  4087  000048                     	ds	1
  4088  0000                     int$flags	set	btemp
  4089  0000                     wtemp8	set	btemp+1
  4090  0000                     ttemp5	set	btemp+1
  4091  0000                     ttemp6	set	btemp+4
  4092  0000                     ttemp7	set	btemp+8
  4093                           tosu	equ	0xFFF
  4094                           tosh	equ	0xFFE
  4095                           tosl	equ	0xFFD
  4096                           stkptr	equ	0xFFC
  4097                           pclatu	equ	0xFFB
  4098                           pclath	equ	0xFFA
  4099                           pcl	equ	0xFF9
  4100                           tblptru	equ	0xFF8
  4101                           tblptrh	equ	0xFF7
  4102                           tblptrl	equ	0xFF6
  4103                           tablat	equ	0xFF5
  4104                           prodh	equ	0xFF4
  4105                           prodl	equ	0xFF3
  4106                           indf0	equ	0xFEF
  4107                           postinc0	equ	0xFEE
  4108                           postdec0	equ	0xFED
  4109                           preinc0	equ	0xFEC
  4110                           plusw0	equ	0xFEB
  4111                           fsr0h	equ	0xFEA
  4112                           fsr0l	equ	0xFE9
  4113                           wreg	equ	0xFE8
  4114                           indf1	equ	0xFE7
  4115                           postinc1	equ	0xFE6
  4116                           postdec1	equ	0xFE5
  4117                           preinc1	equ	0xFE4
  4118                           plusw1	equ	0xFE3
  4119                           fsr1h	equ	0xFE2
  4120                           fsr1l	equ	0xFE1
  4121                           bsr	equ	0xFE0
  4122                           indf2	equ	0xFDF
  4123                           postinc2	equ	0xFDE
  4124                           postdec2	equ	0xFDD
  4125                           preinc2	equ	0xFDC
  4126                           plusw2	equ	0xFDB
  4127                           fsr2h	equ	0xFDA
  4128                           fsr2l	equ	0xFD9
  4129                           status	equ	0xFD8


Data Sizes:
    Strings     151
    Constant    0
    Data        0
    BSS         63
    Persistent  0
    Stack       0

Auto Spaces:
    Space          Size  Autos    Used
    COMRAM           94     56      71
    BANK0           160     22      70
    BANK1           256      0       0
    BANK2           256      0       0

Pointer List with Targets:

    f.buffer	PTR unsigned char  size(2) Largest target is 16
		 -> debug@buf2(COMRAM[16]), debug@buf(COMRAM[16]), 

    S1861_IO_FILE$buffer	PTR unsigned char  size(2) Largest target is 16
		 -> debug@buf2(COMRAM[16]), debug@buf(COMRAM[16]), 

    fputc@fp.buffer	PTR unsigned char  size(2) Largest target is 16
		 -> debug@buf2(COMRAM[16]), debug@buf(COMRAM[16]), 

    stopAndDisplay@RFID_buffer	PTR volatile unsigned char  size(2) Largest target is 12
		 -> RFIDbuf(BANK0[12]), 

    stopAndDisplay@mR	PTR struct DC_motor size(2) Largest target is 11
		 -> main@motorR(BANK0[9]), 

    stopAndDisplay@mL	PTR struct DC_motor size(2) Largest target is 11
		 -> main@motorL(BANK0[9]), 

    returnHome@time	PTR volatile unsigned long  size(2) Largest target is 4
		 -> movement_time(COMRAM[4]), 

    returnHome@mR	PTR struct DC_motor size(2) Largest target is 11
		 -> main@motorR(BANK0[9]), 

    returnHome@mL	PTR struct DC_motor size(2) Largest target is 11
		 -> main@motorL(BANK0[9]), 

    moveToBeacon@time	PTR volatile unsigned long  size(2) Largest target is 4
		 -> movement_time(COMRAM[4]), 

    moveToBeacon@exit_flag	PTR volatile unsigned char  size(2) Largest target is 1
		 -> NULL(NULL[0]), RFID_flag(COMRAM[1]), 

    moveToBeacon@mR	PTR struct DC_motor size(2) Largest target is 11
		 -> main@motorR(BANK0[9]), 

    moveToBeacon@mL	PTR struct DC_motor size(2) Largest target is 11
		 -> main@motorL(BANK0[9]), 

    scanForBeacon@mR	PTR struct DC_motor size(2) Largest target is 11
		 -> main@motorR(BANK0[9]), 

    scanForBeacon@mL	PTR struct DC_motor size(2) Largest target is 11
		 -> main@motorL(BANK0[9]), 

    display_RFID@dataBuf	PTR volatile unsigned char  size(2) Largest target is 12
		 -> RFIDbuf(BANK0[12]), 

    check_RFID@dataBuf	PTR volatile unsigned char  size(2) Largest target is 12
		 -> RFIDbuf(BANK0[12]), 

    processRFID@RFIDbuf	PTR volatile unsigned char  size(2) Largest target is 12
		 -> RFIDbuf(BANK0[12]), 

    LCD_String@string	PTR unsigned char  size(2) Largest target is 16
		 -> STR_12(CODE[16]), STR_11(CODE[16]), STR_10(CODE[13]), debug@buf2(COMRAM[16]), 
		 -> debug@buf(COMRAM[16]), STR_7(CODE[16]), STR_6(CODE[15]), STR_5(CODE[15]), 
		 -> STR_4(CODE[10]), STR_3(CODE[16]), STR_2(CODE[16]), STR_1(CODE[15]), 

    init_motor_struct@mR.dutyHighByte	PTR unsigned char  size(2) Largest target is 1
		 -> PDC1H(SFR[1]), PDC0H(SFR[1]), 

    init_motor_struct@mR.dutyLowByte	PTR unsigned char  size(2) Largest target is 1
		 -> PDC1L(SFR[1]), PDC0L(SFR[1]), 

    init_motor_struct@mR	PTR struct DC_motor size(2) Largest target is 11
		 -> main@motorR(BANK0[9]), 

    init_motor_struct@mL.dutyHighByte	PTR unsigned char  size(2) Largest target is 1
		 -> PDC1H(SFR[1]), PDC0H(SFR[1]), 

    init_motor_struct@mL.dutyLowByte	PTR unsigned char  size(2) Largest target is 1
		 -> PDC1L(SFR[1]), PDC0L(SFR[1]), 

    init_motor_struct@mL	PTR struct DC_motor size(2) Largest target is 11
		 -> main@motorL(BANK0[9]), 

    moveBackward@mR.dutyHighByte	PTR unsigned char  size(2) Largest target is 1
		 -> PDC1H(SFR[1]), PDC0H(SFR[1]), 

    moveBackward@mR.dutyLowByte	PTR unsigned char  size(2) Largest target is 1
		 -> PDC1L(SFR[1]), PDC0L(SFR[1]), 

    moveBackward@mR	PTR struct DC_motor size(2) Largest target is 11
		 -> main@motorR(BANK0[9]), 

    moveBackward@mL.dutyHighByte	PTR unsigned char  size(2) Largest target is 1
		 -> PDC1H(SFR[1]), PDC0H(SFR[1]), 

    moveBackward@mL.dutyLowByte	PTR unsigned char  size(2) Largest target is 1
		 -> PDC1L(SFR[1]), PDC0L(SFR[1]), 

    moveBackward@mL	PTR struct DC_motor size(2) Largest target is 11
		 -> main@motorL(BANK0[9]), 

    moveForward@mR.dutyHighByte	PTR unsigned char  size(2) Largest target is 1
		 -> PDC1H(SFR[1]), PDC0H(SFR[1]), 

    moveForward@mR.dutyLowByte	PTR unsigned char  size(2) Largest target is 1
		 -> PDC1L(SFR[1]), PDC0L(SFR[1]), 

    moveForward@mR	PTR struct DC_motor size(2) Largest target is 11
		 -> main@motorR(BANK0[9]), 

    moveForward@mL.dutyHighByte	PTR unsigned char  size(2) Largest target is 1
		 -> PDC1H(SFR[1]), PDC0H(SFR[1]), 

    moveForward@mL.dutyLowByte	PTR unsigned char  size(2) Largest target is 1
		 -> PDC1L(SFR[1]), PDC0L(SFR[1]), 

    moveForward@mL	PTR struct DC_motor size(2) Largest target is 11
		 -> main@motorL(BANK0[9]), 

    turn@mR.dutyHighByte	PTR unsigned char  size(2) Largest target is 1
		 -> PDC1H(SFR[1]), PDC0H(SFR[1]), 

    turn@mR.dutyLowByte	PTR unsigned char  size(2) Largest target is 1
		 -> PDC1L(SFR[1]), PDC0L(SFR[1]), 

    turn@mR	PTR struct DC_motor size(2) Largest target is 11
		 -> main@motorR(BANK0[9]), 

    turn@mL.dutyHighByte	PTR unsigned char  size(2) Largest target is 1
		 -> PDC1H(SFR[1]), PDC0H(SFR[1]), 

    turn@mL.dutyLowByte	PTR unsigned char  size(2) Largest target is 1
		 -> PDC1L(SFR[1]), PDC0L(SFR[1]), 

    turn@mL	PTR struct DC_motor size(2) Largest target is 11
		 -> main@motorL(BANK0[9]), 

    stop@mR.dutyHighByte	PTR unsigned char  size(2) Largest target is 1
		 -> PDC1H(SFR[1]), PDC0H(SFR[1]), 

    stop@mR.dutyLowByte	PTR unsigned char  size(2) Largest target is 1
		 -> PDC1L(SFR[1]), PDC0L(SFR[1]), 

    stop@mR	PTR struct DC_motor size(2) Largest target is 11
		 -> main@motorR(BANK0[9]), 

    stop@mL.dutyHighByte	PTR unsigned char  size(2) Largest target is 1
		 -> PDC1H(SFR[1]), PDC0H(SFR[1]), 

    stop@mL.dutyLowByte	PTR unsigned char  size(2) Largest target is 1
		 -> PDC1L(SFR[1]), PDC0L(SFR[1]), 

    stop@mL	PTR struct DC_motor size(2) Largest target is 11
		 -> main@motorL(BANK0[9]), 

    setMotorPWM@m.dutyHighByte	PTR unsigned char  size(2) Largest target is 1
		 -> PDC1H(SFR[1]), PDC0H(SFR[1]), 

    setMotorPWM@m.dutyLowByte	PTR unsigned char  size(2) Largest target is 1
		 -> PDC1L(SFR[1]), PDC0L(SFR[1]), 

    setMotorPWM@m	PTR struct DC_motor size(2) Largest target is 11
		 -> main@motorR(BANK0[9]), main@motorL(BANK0[9]), 

    motorR.dutyHighByte	PTR unsigned char  size(2) Largest target is 1
		 -> PDC1H(SFR[1]), PDC0H(SFR[1]), 

    motorR.dutyLowByte	PTR unsigned char  size(2) Largest target is 1
		 -> PDC1L(SFR[1]), PDC0L(SFR[1]), 

    S366DC_motor$dutyHighByte	PTR unsigned char  size(2) Largest target is 1
		 -> PDC1H(SFR[1]), PDC0H(SFR[1]), 

    motorL.dutyHighByte	PTR unsigned char  size(2) Largest target is 1
		 -> PDC1H(SFR[1]), PDC0H(SFR[1]), 

    S366DC_motor$dutyLowByte	PTR unsigned char  size(2) Largest target is 1
		 -> PDC1L(SFR[1]), PDC0L(SFR[1]), 

    motorL.dutyLowByte	PTR unsigned char  size(2) Largest target is 1
		 -> PDC1L(SFR[1]), PDC0L(SFR[1]), 


Critical Paths under _main in COMRAM

    _main->_moveToBeacon
    _waitForInput->_LCD_String
    _waitForInput->_classify_data
    _stopAndDisplay->_stop
    _stop->_setMotorPWM
    _display_RFID->_ClearLCD
    _display_RFID->_SetLine
    _check_RFID->_LCD_String
    _SetLine->_SendLCD
    _setup->_init_LCD
    _init_LCD->_SendLCD
    _scanForBeacon->_turn
    _turn->_setMotorPWM
    _returnHome->_moveBackward
    _moveBackward->_setMotorPWM
    _moveToBeacon->_moveForward
    _moveForward->_setMotorPWM
    _LCD_String->_SendLCD
    _ClearLCD->_SendLCD
    _SendLCD->_LCDout
    _init_motor_struct->_setMotorPWM
    _setMotorPWM->___awdiv
    ___awdiv->___wmul

Critical Paths under _InterruptHandlerLow in COMRAM

    None.

Critical Paths under _InterruptHandlerHigh in COMRAM

    _InterruptHandlerHigh->_processRFID

Critical Paths under _main in BANK0

    None.

Critical Paths under _InterruptHandlerLow in BANK0

    None.

Critical Paths under _InterruptHandlerHigh in BANK0

    None.

Critical Paths under _main in BANK1

    None.

Critical Paths under _InterruptHandlerLow in BANK1

    None.

Critical Paths under _InterruptHandlerHigh in BANK1

    None.

Critical Paths under _main in BANK2

    None.

Critical Paths under _InterruptHandlerLow in BANK2

    None.

Critical Paths under _InterruptHandlerHigh in BANK2

    None.

Call Graph Tables:

 ---------------------------------------------------------------------------------
 (Depth) Function   	        Calls       Base Space   Used Autos Params    Refs
 ---------------------------------------------------------------------------------
 (0) _main                                                22    22      0   47584
                                              0 BANK0     22    22      0
                         _LCD_String
                  _init_motor_struct
                       _moveToBeacon
                         _returnHome
                      _scanForBeacon
                              _setup
                     _stopAndDisplay
                       _waitForInput
 ---------------------------------------------------------------------------------
 (1) _waitForInput                                         9     9      0    5007
                                             16 COMRAM     9     9      0
                           _ClearLCD
                         _LCD_String
                            _SetLine
                      _classify_data
 ---------------------------------------------------------------------------------
 (1) _stopAndDisplay                                      12     4      8   15111
                                             42 COMRAM    12     4      8
                           _ClearLCD
                         _LCD_String
                         _check_RFID
                       _display_RFID
                               _stop
 ---------------------------------------------------------------------------------
 (2) _stop                                                 9     3      6    2769
                                             33 COMRAM     9     3      6
                        _setMotorPWM
 ---------------------------------------------------------------------------------
 (2) _display_RFID                                         4     2      2    3633
                                             15 COMRAM     4     2      2
                           _ClearLCD
                            _SendLCD
                            _SetLine
 ---------------------------------------------------------------------------------
 (2) _check_RFID                                          24    22      2    4716
                                             16 COMRAM    24    22      2
                         _LCD_String
                            _SetLine
 ---------------------------------------------------------------------------------
 (2) _SetLine                                              1     1      0    1179
                                             14 COMRAM     1     1      0
                            _SendLCD
 ---------------------------------------------------------------------------------
 (1) _setup                                                0     0      0    1396
                            _initPWM
                           _init_LCD
                          _init_RFID
                        _init_sensor
 ---------------------------------------------------------------------------------
 (2) _init_sensor                                          2     2      0       3
                                             10 COMRAM     2     2      0
 ---------------------------------------------------------------------------------
 (2) _init_RFID                                            0     0      0       0
 ---------------------------------------------------------------------------------
 (2) _init_LCD                                             1     1      0    1241
                                             14 COMRAM     1     1      0
                             _LCDout
                            _SendLCD
 ---------------------------------------------------------------------------------
 (2) _initPWM                                              2     0      2     152
                                             10 COMRAM     2     0      2
 ---------------------------------------------------------------------------------
 (1) _scanForBeacon                                       11     5      6    6886
                                             42 COMRAM    11     5      6
                           _ClearLCD
                         _LCD_String
                      _classify_data
                               _turn
 ---------------------------------------------------------------------------------
 (2) _turn                                                 9     3      6    2800
                                             33 COMRAM     9     3      6
                        _setMotorPWM
 ---------------------------------------------------------------------------------
 (2) _classify_data                                        6     4      2     276
                                             10 COMRAM     6     4      2
 ---------------------------------------------------------------------------------
 (1) _returnHome                                          12     4      8    6663
                                             42 COMRAM    12     4      8
                           _ClearLCD
                         _LCD_String
                       _moveBackward
 ---------------------------------------------------------------------------------
 (2) _moveBackward                                         9     3      6    2800
                                             33 COMRAM     9     3      6
                        _setMotorPWM
 ---------------------------------------------------------------------------------
 (1) _moveToBeacon                                        14     4     10    6787
                                             42 COMRAM    14     4     10
                           _ClearLCD
                         _LCD_String
                        _moveForward
 ---------------------------------------------------------------------------------
 (2) _moveForward                                          9     3      6    2800
                                             33 COMRAM     9     3      6
                        _setMotorPWM
 ---------------------------------------------------------------------------------
 (2) _LCD_String                                           2     0      2    2262
                                             14 COMRAM     2     0      2
                            _SendLCD
 ---------------------------------------------------------------------------------
 (2) _ClearLCD                                             1     1      0    1117
                                             14 COMRAM     1     1      0
                            _SendLCD
 ---------------------------------------------------------------------------------
 (3) _SendLCD                                              2     1      1    1117
                                             12 COMRAM     2     1      1
                             _LCDout
 ---------------------------------------------------------------------------------
 (4) _LCDout                                               2     2      0     124
                                             10 COMRAM     2     2      0
                              _E_TOG
 ---------------------------------------------------------------------------------
 (5) _E_TOG                                                0     0      0       0
 ---------------------------------------------------------------------------------
 (1) _init_motor_struct                                    4     0      4    2828
                                             33 COMRAM     4     0      4
                        _setMotorPWM
 ---------------------------------------------------------------------------------
 (3) _setMotorPWM                                          9     7      2    2214
                                             24 COMRAM     9     7      2
                            ___awdiv
                             ___wmul
 ---------------------------------------------------------------------------------
 (4) ___wmul                                               6     2      4     402
                                             10 COMRAM     6     2      4
 ---------------------------------------------------------------------------------
 (4) ___awdiv                                              8     4      4     565
                                             16 COMRAM     8     4      4
                             ___wmul (ARG)
 ---------------------------------------------------------------------------------
 Estimated maximum stack depth 5
 ---------------------------------------------------------------------------------
 (Depth) Function   	        Calls       Base Space   Used Autos Params    Refs
 ---------------------------------------------------------------------------------
 (7) _InterruptHandlerLow                                  3     3      0       0
                                              7 COMRAM     3     3      0
 ---------------------------------------------------------------------------------
 Estimated maximum stack depth 7
 ---------------------------------------------------------------------------------
 (Depth) Function   	        Calls       Base Space   Used Autos Params    Refs
 ---------------------------------------------------------------------------------
 (8) _InterruptHandlerHigh                                 3     3      0     331
                                              4 COMRAM     3     3      0
                        _processRFID
 ---------------------------------------------------------------------------------
 (9) _processRFID                                          4     1      3     330
                                              0 COMRAM     4     1      3
 ---------------------------------------------------------------------------------
 Estimated maximum stack depth 9
 ---------------------------------------------------------------------------------

 Call Graph Graphs:

 _main (ROOT)
   _LCD_String
     _SendLCD
       _LCDout
         _E_TOG
   _init_motor_struct
     _setMotorPWM
       ___awdiv
         ___wmul (ARG)
       ___wmul
   _moveToBeacon
     _ClearLCD
       _SendLCD
         _LCDout
           _E_TOG
     _LCD_String
       _SendLCD
         _LCDout
           _E_TOG
     _moveForward
       _setMotorPWM
         ___awdiv
           ___wmul (ARG)
         ___wmul
   _returnHome
     _ClearLCD
       _SendLCD
         _LCDout
           _E_TOG
     _LCD_String
       _SendLCD
         _LCDout
           _E_TOG
     _moveBackward
       _setMotorPWM
         ___awdiv
           ___wmul (ARG)
         ___wmul
   _scanForBeacon
     _ClearLCD
       _SendLCD
         _LCDout
           _E_TOG
     _LCD_String
       _SendLCD
         _LCDout
           _E_TOG
     _classify_data
     _turn
       _setMotorPWM
         ___awdiv
           ___wmul (ARG)
         ___wmul
   _setup
     _initPWM
     _init_LCD
       _LCDout
         _E_TOG
       _SendLCD
         _LCDout
           _E_TOG
     _init_RFID
     _init_sensor
   _stopAndDisplay
     _ClearLCD
       _SendLCD
         _LCDout
           _E_TOG
     _LCD_String
       _SendLCD
         _LCDout
           _E_TOG
     _check_RFID
       _LCD_String
         _SendLCD
           _LCDout
             _E_TOG
       _SetLine
         _SendLCD
           _LCDout
             _E_TOG
     _display_RFID
       _ClearLCD
         _SendLCD
           _LCDout
             _E_TOG
       _SendLCD
         _LCDout
           _E_TOG
       _SetLine
         _SendLCD
           _LCDout
             _E_TOG
     _stop
       _setMotorPWM
         ___awdiv
           ___wmul (ARG)
         ___wmul
   _waitForInput
     _ClearLCD
       _SendLCD
         _LCDout
           _E_TOG
     _LCD_String
       _SendLCD
         _LCDout
           _E_TOG
     _SetLine
       _SendLCD
         _LCDout
           _E_TOG
     _classify_data

 _InterruptHandlerLow (ROOT)

 _InterruptHandlerHigh (ROOT)
   _processRFID

 Address spaces:
Name               Size   Autos  Total    Cost      Usage
BIGRAM             2FF      0       0      10        0.0%
EEDATA             100      0       0       0        0.0%
BITBANK2           100      0       0       8        0.0%
BANK2              100      0       0       9        0.0%
BITBANK1           100      0       0       6        0.0%
BANK1              100      0       0       7        0.0%
BITBANK0            A0      0       0       4        0.0%
BANK0               A0     16      46       5       43.8%
BITCOMRAM           5E      0       0       0        0.0%
COMRAM              5E     38      47       1       75.5%
BITSFR               0      0       0     200        0.0%
SFR                  0      0       0     200        0.0%
STACK                0      0       0       2        0.0%
NULL                 0      0       0       0        0.0%
ABS                  0      0      8D       3        0.0%
DATA                 0      0      8D      11        0.0%
CODE                 0      0       0       0        0.0%


Microchip Technology PIC18 Macro Assembler V2.05 build -831301201 
Symbol Table                                                                                   Mon Mar 09 15:00:25 2020

                           l55 0F12                   ___awdiv@sign 0016                             bsr 000FE0  
          ___wmul@multiplicand 000D                  ?_display_RFID 0010                    ?_LCD_String 000F  
                          l121 05B2                            l343 0918            display_RFID@dataBuf 0010  
               moveToBeacon@mL 002B                 moveToBeacon@mR 002D        __size_of_stopAndDisplay 0098  
                          wreg 000FE8                   processRFID@i 0004                   __CFG_LVP$OFF 000000  
                         l2213 0A18                           l2225 0A3E                           l2241 0A70  
                         l2401 0B76                           l2227 0A46                           l2219 0A28  
                         l2251 0CE8                           l2245 0A7E                           l2237 0A66  
                         l2421 0426                           l2271 0FBA                           l2431 04D6  
                         l2415 03E4                           l2343 0D5A                           l2265 058A  
                         l2257 0D1C                           l2409 03A2                           l2505 08BA  
                         l2275 0FCC                           l2443 0EE0                           l2339 0D4C  
                         l2603 09C8                           l2611 0A00                           l2541 0DCC  
                         l2375 0BB6                           l2391 0B34                           l2359 0AB2  
                         l2385 0BF8                           l2561 0CC0                           l2457 0E86  
                         l2369 0AF4                           l2609 09FA                           l2529 093A  
                         l2641 06F2                           l2633 0694                           l2625 063C  
                         l2557 0CB2                           l2637 06C2                           l2629 0660  
                         l2567 0CC4                           l2593 09B0                           l2579 0EB6  
                         STR_1 036F                           STR_2 0341                           STR_3 0331  
                         STR_4 038B                           STR_5 0351                           STR_6 0360  
                         STR_7 0321                           STR_8 0395                           u2007 0AE8  
                         u2017 0B6A                           u1330 0A4A                           u2027 0BEC  
                         u1404 055E                           u1405 055A                           u2037 0D16  
                         u1414 05A6                           _LATB 000F8A                           u1415 05A2  
                         u2047 1066                           u1360 0D0C                           u1600 0474  
                         u1425 05FE                           u2057 0F90                           u1370 0D3C  
                         u1610 0476                           u1530 043A                           u2067 0FA0  
                         u1700 0E82                           u1620 0484                           u1540 0444  
                         u2077 0C7E                           u1630 0486                           u1550 0446  
                         u2087 108C                           u1295 0F82                           u1367 0D02  
                         u1296 0F84                           u1640 0494                           u1560 0454  
                         u1800 09F4                           u1377 0D32                           u1650 0496  
                         u1570 0456                           u1660 04B2                           u1580 0464  
                         u1740 0966                           u1670 04B4                           u1590 0466  
                         u1760 0CC0                           u1690 0F0C                           u1907 0808  
                         u1917 081E                           u1927 082E                           u1937 083C  
                         u1947 084A                           u1867 0944                           u1957 085C  
                         u1877 09D2                           u1967 086E                           u1887 0D90  
                         u1977 0884                           u1897 0FCE                           u1987 0898  
                         u1997 08AA                           i1l70 003E                           i2l63 0F6A  
                         i2l65 0F6C                           _dbuf 0064                           _main 060E  
                         _prec 0039                           _nout 0060                           fsr0h 000FEA  
                         indf0 000FEF                           fsr2h 000FDA                           fsr0l 000FE9  
                         indf1 000FE7                           indf2 000FDF                           fsr1l 000FE1  
                         fsr2l 000FD9                           btemp 0048                           _stop 0D44  
                         _turn 0A88                           prodh 000FF4                           prodl 000FF3  
                         start 0066                   ___param_bank 000000                __end_of_SendLCD 0FA8  
              __end_of_SetLine 0FD6                 ??_display_RFID 0012                          ?_main 0001  
          main@searching_speed 0090                __end_of___awdiv 0A88                          STR_10 037E  
                        STR_11 0311                          STR_12 0301                          ?_stop 0022  
                        ?_turn 0022                          _T0CON 000FD5                ___awdiv@divisor 0013  
                        _PDC0H 000F78                          _PDC1H 000F76                          _PDC0L 000F79  
                        _PDC1L 000F77                          _T5CON 000FB7                ___awdiv@counter 0015  
                        _RCREG 000FAE                          _E_TOG 1088                          _SPBRG 000FAF  
                 ?_init_sensor 0001                __end_of_initPWM 1056                          _flags 003B  
                        _setup 0F0E                          _width 0062               moveToBeacon@time 0031  
                        tablat 000FF5                          plusw2 000FDB             processRFID@RFIDbuf 0001  
                        ttemp5 0049                          ttemp6 004C                          ttemp7 0050  
                        stop@i 0029                          status 000FD8                          turn@i 0029  
                        wtemp8 0049            __size_of_LCD_String 005E               __end_of_ClearLCD 1070  
         moveForward@max_power 0026                 __CFG_MCLRE$OFF 000000                __initialization 0FD6  
                 __end_of_main 0700                   __end_of_stop 0DA0                   __end_of_turn 0B0A  
               __CFG_OSC$IRCIO 000000               LCD_String@string 000F                         ??_main 0039  
                       ??_stop 0028                         ??_turn 0028                  __activetblptr 000002  
                       ?_E_TOG 0001                   ?_setMotorPWM 0019                   ?_moveForward 0022  
 scanForBeacon@beacon_location 0035               ___awdiv@dividend 0011                         ?_setup 0001  
                       _ANSEL0 000FB8                         _ANSEL1 000FB9                         i1l1607 0054  
                       i2l1973 0E16                         i2l1965 0E06                         i2l1985 0E32  
                       _LCDout 0C0E                    SendLCD@Byte 000E                         _OSCCON 000FD3  
                       _PTCON0 000F7F                         _PTCON1 000F7E                         _SPBRGH 000FB0  
                       _PTPERH 000F7A                         _PTPERL 000F7B                    SendLCD@type 000D  
                    ??_SendLCD 000E                      ??_SetLine 000F                  display_RFID@i 0012  
                       ___wmul 0FFC                      ??___awdiv 0015               __end_of_init_LCD 08B2  
          init_motor_struct@mL 0022            init_motor_struct@mR 0024                         clear_0 0FDC  
                       clear_1 0FE8               ___awdiv@quotient 0017         __size_of_scanForBeacon 005A  
            moveToBeacon@speed 002F                      ??_initPWM 000D                 _stopAndDisplay 096C  
                 __mediumconst 0000                         tblptrh 000FF7                         tblptrl 000FF6  
                       tblptru 000FF8                         stop@mL 0022                         stop@mR 0024  
                       turn@mL 0022                         turn@mR 0024                   ?_processRFID 0001  
            _init_motor_struct 0700           __end_of_display_RFID 0F0E             ?_init_motor_struct 0022  
                   __accesstop 0060        __end_of__initialization 0FEE                  ___rparam_used 000001  
                  SetLine@line 000F                  __end_of_E_TOG 1096            ??_init_motor_struct 0026  
               __pcstackCOMRAM 0001                  __end_of_setup 0F44                   ??_LCD_String 0011  
       __end_of_stopAndDisplay 0A04                        ??_E_TOG 000B  __size_of_InterruptHandlerHigh 0F70  
                    ?_ClearLCD 0001    __end_of_InterruptHandlerLow 0066      __end_of_init_motor_struct 07EA  
        __end_of_classify_data 0E8A                     _check_RFID 039A           __size_of_init_sensor 0018  
                      ??_setup 0010                  ?_moveBackward 0022                     __pbssBANK0 0060  
                      ?_LCDout 0001                  _scanForBeacon 0DA0             __size_of_init_RFID 001A  
           __end_of_LCD_String 0D44             waitForInput@i_1361 0018                        ?___wmul 000B  
                ?_moveToBeacon 002B                        _CAP1CON 000F63                ?_stopAndDisplay 002B  
                   ??_ClearLCD 000F                        _RFIDbuf 0084                        _PWMCON0 000F6F  
                      _PWMCON1 000F6E                 ??_moveBackward 0028                 ?_scanForBeacon 002B  
         __size_of_setMotorPWM 0124           __size_of_moveForward 0082      stopAndDisplay@RFID_buffer 0031  
                    ?_init_LCD 0001                __size_of_LCDout 0078                  moveBackward@i 0029  
                ?_waitForInput 0001                        _SendLCD 0F78                        __Hparam 0000  
                      _SetLine 0FA8                        __Lparam 0000                 ??_moveToBeacon 0035  
        processRFID@latestChar 0003                        ___awdiv 0A04                __size_of___wmul 0026  
                 __psmallconst 0300               initPWM@PWMperiod 000B                        __pcinit 0FD6  
                      __ramtop 0300                        __ptext0 060E                        __ptext1 08B2  
                      __ptext2 096C                        __ptext3 0D44                        __ptext4 0ECE  
                      __ptext5 039A                        __ptext6 0FA8                        __ptext7 0F0E  
                      __ptext8 1070                        __ptext9 1022              __end_of_init_RFID 103C  
             check_RFID@hexBuf 0015                        _initPWM 103C           waitForInput@raw_data 0014  
                 LCDout@number 000C     __size_of_init_motor_struct 00EA          __size_of_display_RFID 0040  
            stop@initial_speed 0026                    ?_check_RFID 0011                 __pintcode_body 0F44  
         end_of_initialization 0FEE             setMotorPWM@PWMduty 0020                     ??_init_LCD 000F  
         __size_of_processRFID 004C                 ??_waitForInput 0011                  __Lmediumconst 0000  
                      int_func 0F44                      _RFID_flag 0047                      _RCSTAbits 000FAB  
                      postdec2 000FDD                        postinc0 000FEE                        postinc2 000FDE  
        moveToBeacon@exit_flag 0033                     _robot_mode 0042                     _returnHome 0E8A  
                 _display_RFID 0ECE                      _PORTDbits 000F83                      _TRISAbits 000F92  
                    _TRISBbits 000F93                      _TRISCbits 000F94                      _TRISDbits 000F95  
              ??_scanForBeacon 0031             debug@smoothed_data 003D                  moveForward@mL 0022  
                moveForward@mR 0024                 __end_of_LCDout 0C86                      _TXSTAbits 000FAC  
                   main@motorL 0094                     main@motorR 009D           __end_of_moveBackward 0B8C  
          __size_of_check_RFID 0150                 __end_of___wmul 1022                    _BAUDCONbits 000FAA  
        classify_data@filtered 000F            start_initialization 0FD6              __size_of_ClearLCD 001A  
         __end_of_moveToBeacon 0CE6          classify_data@raw_data 000B                       ??_LCDout 000B  
        moveBackward@max_power 0026   __end_of_InterruptHandlerHigh 0F78          classify_data@smoothed 003F  
             ??_stopAndDisplay 0033                       ??___wmul 000F                scanForBeacon@mL 002B  
              scanForBeacon@mR 002D                    ?_returnHome 002B           __end_of_waitForInput 096C  
                  __pbssCOMRAM 0039                  ??_init_sensor 000B                  __pcstackBANK0 0090  
 __size_of_InterruptHandlerLow 004E              __size_of_init_LCD 00C8                       ?_SendLCD 000D  
                     ?_SetLine 0001                      __pintcode 0008                       ?___awdiv 0011  
       __size_of_classify_data 0044             check_RFID@checksum 0026                    __pintcodelo 0018  
                     _CAP1BUFH 000F69                       _CAP1BUFL 000F68                       ?_initPWM 000B  
                  __smallconst 0300                 __size_of_E_TOG 000E                  waitForInput@i 0016  
                    _init_RFID 1022            stopAndDisplay@speed 002F                  ??_setMotorPWM 001B  
                ??_moveForward 0028                   ??_check_RFID 0013                 __size_of_setup 0036  
              check_RFID@byte1 0021                check_RFID@byte2 0022                check_RFID@byte3 0023  
              check_RFID@byte4 0024                check_RFID@byte5 0025            __end_of_init_sensor 1088  
               ___wmul@product 000F            __size_of_returnHome 0044                       _LATAbits 000F89  
                     _LATCbits 000F8B                       _LATDbits 000F8C                       _IPR1bits 000F9F  
                     _PIE1bits 000F9D                       i2u112_40 0E2E          __size_of_moveBackward 0082  
                     _PIR1bits 000F9E                       _RCONbits 000FD0             __end_of_check_RFID 04EA  
            ___wmul@multiplier 000B                   setMotorPWM@m 0019                   moveForward@i 0029  
             main@moving_speed 0092          __size_of_moveToBeacon 0060           _InterruptHandlerHigh 0008  
                     _ClearLCD 1056                  _movement_time 0043                     ?_init_RFID 0001  
                ??_processRFID 0004                  _classify_data 0E46                    _INTCON2bits 000FF1  
               moveBackward@mL 0022                 moveBackward@mR 0024                   _moveBackward 0B0A  
          __end_of_setMotorPWM 060E            __end_of_moveForward 0C0E                    check_RFID@i 0027  
                     __Hrparam 0000                  turn@max_power 0026               __size_of_SendLCD 0030  
                     __Lrparam 0000               __size_of_SetLine 002E          __size_of_waitForInput 00BA  
                 _moveToBeacon 0C86               __size_of___awdiv 0084          ?_InterruptHandlerHigh 0001  
             __size_of_initPWM 001A                    _init_sensor 1070                 ?_classify_data 000B  
            check_RFID@dataBuf 0011                       __ptext10 07EA                       __ptext11 103C  
                     __ptext20 1056                       __ptext12 0DA0                       __ptext21 0F78  
                     __ptext13 0A88                       __ptext30 0DFA                       __ptext22 0C0E  
                     __ptext14 0E46                       __ptext23 1088                       __ptext15 0E8A  
                     __ptext24 0700                       __ptext16 0B0A                       __ptext25 04EA  
                     __ptext17 0C86                       __ptext26 0FFC                       __ptext18 0B8C  
                     __ptext27 0A04                       __ptext19 0CE6          __end_of_scanForBeacon 0DFA  
                     _init_LCD 07EA                  __size_of_main 00F2                  __size_of_stop 005C  
                __size_of_turn 0082            __end_of_processRFID 0E46                   _waitForInput 08B2  
           scanForBeacon@speed 002F                       int$flags 0048                   ??_returnHome 0033  
          _InterruptHandlerLow 0018                     _LCD_String 0CE6          scanForBeacon@raw_data 0033  
                   _INTCONbits 000FF2                    ??_init_RFID 000B                    _setMotorPWM 04EA  
                  _moveForward 0B8C                       intlevel1 0000                       intlevel2 0000  
         ?_InterruptHandlerLow 0001             __end_of_returnHome 0ECE                     _OSCCONbits 000FD3  
   processRFID@position_in_buf 0041         ??_InterruptHandlerHigh 0005                ??_classify_data 000D  
             stopAndDisplay@mL 002B               stopAndDisplay@mR 002D                returnHome@speed 002F  
                  _processRFID 0DFA          ??_InterruptHandlerLow 0008                stopAndDisplay@i 0035  
               returnHome@time 0031                   returnHome@mL 002B                   returnHome@mR 002D  
